
multiple_axis_test.elf:     file format elf32-littlenios2
multiple_axis_test.elf
architecture: nios2:r1, flags 0x00000112:
EXEC_P, HAS_SYMS, D_PAGED
start address 0x00010180

Program Header:
    LOAD off    0x00001000 vaddr 0x00010000 paddr 0x00010000 align 2**12
         filesz 0x00000020 memsz 0x00000020 flags r-x
    LOAD off    0x00001020 vaddr 0x00010020 paddr 0x00010020 align 2**12
         filesz 0x00002470 memsz 0x00002470 flags r-x
    LOAD off    0x00003490 vaddr 0x00012490 paddr 0x00012624 align 2**12
         filesz 0x00000194 memsz 0x00000194 flags rw-
    LOAD off    0x000037b8 vaddr 0x000127b8 paddr 0x000127b8 align 2**12
         filesz 0x00000000 memsz 0x00000130 flags rw-

Sections:
Idx Name          Size      VMA       LMA       File off  Algn
  0 .entry        00000020  00010000  00010000  00001000  2**5
                  CONTENTS, ALLOC, LOAD, READONLY, CODE
  1 .exceptions   00000160  00010020  00010020  00001020  2**2
                  CONTENTS, ALLOC, LOAD, READONLY, CODE
  2 .text         00002138  00010180  00010180  00001180  2**2
                  CONTENTS, ALLOC, LOAD, READONLY, CODE
  3 .rodata       000001d8  000122b8  000122b8  000032b8  2**2
                  CONTENTS, ALLOC, LOAD, READONLY, DATA
  4 .rwdata       00000194  00012490  00012624  00003490  2**2
                  CONTENTS, ALLOC, LOAD, DATA, SMALL_DATA
  5 .bss          00000130  000127b8  000127b8  000037b8  2**2
                  ALLOC, SMALL_DATA
  6 .onchip_memory 00000000  000128e8  000128e8  00003624  2**0
                  CONTENTS
  7 .comment      0000002c  00000000  00000000  00003624  2**0
                  CONTENTS, READONLY
  8 .debug_aranges 00000610  00000000  00000000  00003650  2**3
                  CONTENTS, READONLY, DEBUGGING
  9 .debug_info   00018a15  00000000  00000000  00003c60  2**0
                  CONTENTS, READONLY, DEBUGGING
 10 .debug_abbrev 000057e2  00000000  00000000  0001c675  2**0
                  CONTENTS, READONLY, DEBUGGING
 11 .debug_line   00006fb7  00000000  00000000  00021e57  2**0
                  CONTENTS, READONLY, DEBUGGING
 12 .debug_frame  0000086c  00000000  00000000  00028e10  2**2
                  CONTENTS, READONLY, DEBUGGING
 13 .debug_str    00002802  00000000  00000000  0002967c  2**0
                  CONTENTS, READONLY, DEBUGGING
 14 .debug_loc    00004c5f  00000000  00000000  0002be7e  2**0
                  CONTENTS, READONLY, DEBUGGING
 15 .debug_alt_sim_info 00000010  00000000  00000000  00030ae0  2**2
                  CONTENTS, READONLY, DEBUGGING
 16 .debug_ranges 00000718  00000000  00000000  00030af0  2**3
                  CONTENTS, READONLY, DEBUGGING
 17 .thread_model 00000003  00000000  00000000  00032ce6  2**0
                  CONTENTS, READONLY
 18 .cpu          00000003  00000000  00000000  00032ce9  2**0
                  CONTENTS, READONLY
 19 .qsys         00000001  00000000  00000000  00032cec  2**0
                  CONTENTS, READONLY
 20 .simulation_enabled 00000001  00000000  00000000  00032ced  2**0
                  CONTENTS, READONLY
 21 .stderr_dev   00000009  00000000  00000000  00032cee  2**0
                  CONTENTS, READONLY
 22 .stdin_dev    00000009  00000000  00000000  00032cf7  2**0
                  CONTENTS, READONLY
 23 .stdout_dev   00000009  00000000  00000000  00032d00  2**0
                  CONTENTS, READONLY
 24 .sopc_system_name 00000012  00000000  00000000  00032d09  2**0
                  CONTENTS, READONLY
 25 .quartus_project_dir 0000003c  00000000  00000000  00032d1b  2**0
                  CONTENTS, READONLY
 26 .jdi          00004f70  00000000  00000000  00032d57  2**0
                  CONTENTS, READONLY
 27 .sopcinfo     0006ec5e  00000000  00000000  00037cc7  2**0
                  CONTENTS, READONLY
SYMBOL TABLE:
00010000 l    d  .entry	00000000 .entry
00010020 l    d  .exceptions	00000000 .exceptions
00010180 l    d  .text	00000000 .text
000122b8 l    d  .rodata	00000000 .rodata
00012490 l    d  .rwdata	00000000 .rwdata
000127b8 l    d  .bss	00000000 .bss
000128e8 l    d  .onchip_memory	00000000 .onchip_memory
00000000 l    d  .comment	00000000 .comment
00000000 l    d  .debug_aranges	00000000 .debug_aranges
00000000 l    d  .debug_info	00000000 .debug_info
00000000 l    d  .debug_abbrev	00000000 .debug_abbrev
00000000 l    d  .debug_line	00000000 .debug_line
00000000 l    d  .debug_frame	00000000 .debug_frame
00000000 l    d  .debug_str	00000000 .debug_str
00000000 l    d  .debug_loc	00000000 .debug_loc
00000000 l    d  .debug_alt_sim_info	00000000 .debug_alt_sim_info
00000000 l    d  .debug_ranges	00000000 .debug_ranges
00000000 l    df *ABS*	00000000 ../multiple_axis_test_bsp//obj/HAL/src/crt0.o
000101b8 l       .text	00000000 alt_after_alt_main
00000000 l    df *ABS*	00000000 alt_irq_handler.c
00000000 l    df *ABS*	00000000 alt_instruction_exception_entry.c
00000000 l    df *ABS*	00000000 hello_world_small.c
00012357 l     O .rodata	0000002b CSWTCH.29
00000000 l    df *ABS*	00000000 divdf3.c
00000000 l    df *ABS*	00000000 fixdfsi.c
00000000 l    df *ABS*	00000000 floatsidf.c
00000000 l    df *ABS*	00000000 libgcc2.c
00000000 l    df *ABS*	00000000 lib2-divmod.c
00000000 l    df *ABS*	00000000 lib2-mul.c
00000000 l    df *ABS*	00000000 libgcc2.c
00000000 l    df *ABS*	00000000 calloc.c
00000000 l    df *ABS*	00000000 impure.c
00012490 l     O .rwdata	000000e4 impure_data
00000000 l    df *ABS*	00000000 memcpy.c
00000000 l    df *ABS*	00000000 memset.c
00000000 l    df *ABS*	00000000 nano-mallocr.c
00000000 l    df *ABS*	00000000 nano-mallocr.c
00000000 l    df *ABS*	00000000 printf.c
00000000 l    df *ABS*	00000000 sbrkr.c
00000000 l    df *ABS*	00000000 vfprintf.c
000115a8 l     F .text	0000006c print_repeat
00000000 l    df *ABS*	00000000 fvwrite_small_dev.c
00000000 l    df *ABS*	00000000 int_errno.c
00000000 l    df *ABS*	00000000 strlen.c
00000000 l    df *ABS*	00000000 writer.c
00000000 l    df *ABS*	00000000 alt_getchar.c
00000000 l    df *ABS*	00000000 alt_irq_register.c
00000000 l    df *ABS*	00000000 alt_irq_vars.c
00000000 l    df *ABS*	00000000 alt_load.c
00000000 l    df *ABS*	00000000 alt_main.c
00000000 l    df *ABS*	00000000 alt_malloc_lock.c
00000000 l    df *ABS*	00000000 alt_putstr.c
00000000 l    df *ABS*	00000000 alt_sbrk.c
00012604 l     O .rwdata	00000004 heap_end
00000000 l    df *ABS*	00000000 alt_write.c
00000000 l    df *ABS*	00000000 alt_sys_init.c
00012574 l     O .rwdata	0000002c accelerometer_spi
00000000 l    df *ABS*	00000000 altera_avalon_jtag_uart_read.c
00000000 l    df *ABS*	00000000 altera_avalon_jtag_uart_write.c
00000000 l    df *ABS*	00000000 altera_up_avalon_accelerometer_spi.c
00000000 l    df *ABS*	00000000 alt_dcache_flush_all.c
00000000 l    df *ABS*	00000000 alt_dev.c
00012128 l     F .text	00000008 alt_dev_null_write
00000000 l    df *ABS*	00000000 alt_dev_llist_insert.c
00000000 l    df *ABS*	00000000 alt_errno.c
00000000 l    df *ABS*	00000000 alt_find_dev.c
00000000 l    df *ABS*	00000000 alt_icache_flush_all.c
00000000 l    df *ABS*	00000000 altera_nios2_gen2_irq.c
00000000 l    df *ABS*	00000000 memcmp.c
000127e4 g     O .bss	00000004 alt_instruction_exception_handler
00011dec g     F .text	0000002c alt_main
000127e8 g     O .bss	00000100 alt_irq
00012624 g       *ABS*	00000000 __flash_rwdata_start
0001028c g     F .text	00000054 timer_1_init
000128e8 g       *ABS*	00000000 __alt_heap_start
00011518 g     F .text	00000048 printf
00011e1c g     F .text	00000004 __malloc_unlock
0001025c g     F .text	00000030 timer_0_init
00011e20 g     F .text	00000038 alt_putstr
00012608 g     O .rwdata	00000004 jtag_uart
00012210 g     F .text	00000008 altera_nios2_gen2_irq_init
00010000 g     F .entry	0000000c __reset
00012010 g     F .text	0000005c alt_up_accelerometer_spi_read_x_axis
00010020 g       *ABS*	00000000 __flash_exceptions_start
000127d0 g     O .bss	00000004 errno
000127dc g     O .bss	00000004 alt_argv
0001a5f8 g       *ABS*	00000000 _gp
000101bc g     F .text	000000a0 accelerometer_isr
000125a0 g     O .rwdata	00000030 alt_fd_list
0001219c g     F .text	00000070 alt_find_dev
000112d0 g     F .text	00000028 memcpy
00010fd0 g     F .text	000000bc .hidden __floatsidf
00012218 g     F .text	00000070 alt_exception_cause_generated_bad_addr
00011f30 g     F .text	00000058 altera_avalon_jtag_uart_read
000114dc g     F .text	0000003c _printf_r
000111d4 g     F .text	00000064 .hidden __udivsi3
000102e0 g     F .text	00000038 compare_strings
00011560 g     F .text	00000048 _sbrk_r
0001260c g     O .rwdata	00000004 alt_max_fd
00011ca8 g     F .text	00000090 alt_irq_register
000125f8 g     O .rwdata	00000004 _global_impure_ptr
000128e8 g       *ABS*	00000000 __bss_end
00011c68 g     F .text	00000040 alt_getchar
000127d4 g     O .bss	00000004 alt_irq_active
000100fc g     F .exceptions	00000060 alt_irq_handler
000125d0 g     O .rwdata	00000028 alt_dev_null
00012124 g     F .text	00000004 alt_dcache_flush_all
000112bc g     F .text	00000014 calloc
00010f50 g     F .text	00000080 .hidden __fixdfsi
00012624 g       *ABS*	00000000 __ram_rwdata_end
00010000 g       *ABS*	00000000 __alt_mem_onchip_memory
00012610 g     O .rwdata	00000008 alt_dev_list
00011ea4 g     F .text	0000005c write
00012490 g       *ABS*	00000000 __ram_rodata_end
00011238 g     F .text	0000005c .hidden __umodsi3
000128e8 g       *ABS*	00000000 end
0001015c g     F .exceptions	00000024 alt_instruction_exception_entry
00020000 g       *ABS*	00000000 __alt_stack_pointer
0001108c g     F .text	00000054 .hidden __clzsi2
00011f88 g     F .text	00000030 altera_avalon_jtag_uart_write
00011614 g     F .text	00000528 ___vfprintf_internal_r
00010180 g     F .text	0000003c _start
00011f20 g     F .text	00000010 alt_sys_init
00011fc0 g     F .text	00000014 alt_up_accelerometer_spi_read_address_register
000127b8 g     O .bss	00000004 prev_time
00011294 g     F .text	00000028 .hidden __mulsi3
00012490 g       *ABS*	00000000 __ram_rwdata_start
000122b8 g       *ABS*	00000000 __ram_rodata_start
0001206c g     F .text	0000005c alt_up_accelerometer_spi_read_y_axis
00010318 g     F .text	00000140 readText
00012288 g     F .text	00000030 memcmp
000128e8 g       *ABS*	00000000 __alt_stack_base
0001061c g     F .text	00000934 .hidden __divdf3
00012130 g     F .text	0000006c alt_dev_llist_insert
00011e18 g     F .text	00000004 __malloc_lock
00011e58 g     F .text	0000004c sbrk
00011318 g     F .text	00000060 _calloc_r
00011b54 g     F .text	000000a8 __sfvwrite_small_dev
000127b8 g       *ABS*	00000000 __bss_start
000104b8 g     F .text	000000ac updateTextISR
000112f8 g     F .text	00000020 memset
00010564 g     F .text	000000b8 main
000127d8 g     O .bss	00000004 alt_envp
00020000 g       *ABS*	00000000 __alt_heap_limit
00011378 g     F .text	00000164 _malloc_r
00012620 g     O .rwdata	00000004 alt_errno
000110e0 g     F .text	00000080 .hidden __divsi3
000122b8 g       *ABS*	00000000 __flash_rodata_start
00011f00 g     F .text	00000020 alt_irq_init
00012384 g     O .rodata	00000100 .hidden __clz_tab
00011c18 g     F .text	00000050 _write_r
000125fc g     O .rwdata	00000004 _impure_ptr
000127e0 g     O .bss	00000004 alt_argc
00010020 g       .exceptions	00000000 alt_irq_entry
000127bc g     O .bss	00000008 currMsg
00012618 g     O .rwdata	00000008 alt_fs_list
00010020 g       *ABS*	00000000 __ram_exceptions_start
00011fb8 g     F .text	00000008 alt_up_accelerometer_spi_open_dev
00010458 g     F .text	00000038 print7seg
00012624 g       *ABS*	00000000 _edata
000128e8 g       *ABS*	00000000 _end
00010180 g       *ABS*	00000000 __ram_exceptions_end
00011160 g     F .text	00000074 .hidden __modsi3
000120c8 g     F .text	0000005c alt_up_accelerometer_spi_read_z_axis
00020000 g       *ABS*	00000000 __alt_data_end
00010020 g     F .exceptions	00000000 alt_exception
0001000c g       .entry	00000000 _exit
00011fd4 g     F .text	00000020 alt_up_accelerometer_spi_read
00011ff4 g     F .text	0000001c alt_up_accelerometer_spi_write
00010490 g     F .text	00000028 getBin
00011bfc g     F .text	0000001c strlen
000127c8 g     O .bss	00000004 __malloc_sbrk_start
0001220c g     F .text	00000004 alt_icache_flush_all
00012600 g     O .rwdata	00000004 alt_priority_mask
000127cc g     O .bss	00000004 __malloc_free_list
00011b3c g     F .text	00000018 __vfprintf_internal
000127c4 g     O .bss	00000004 acc_dev
00011d38 g     F .text	000000b4 alt_load



Disassembly of section .entry:

00010000 <__reset>:
 * Jump to the _start entry point in the .text section if reset code
 * is allowed or if optimizing for RTL simulation.
 */
#if defined(ALT_ALLOW_CODE_AT_RESET) || defined(ALT_SIM_OPTIMIZE)
    /* Jump to the _start entry point in the .text section. */
    movhi r1, %hi(_start)
   10000:	00400074 	movhi	at,1
    ori r1, r1, %lo(_start)
   10004:	08406014 	ori	at,at,384
    jmp r1
   10008:	0800683a 	jmp	at

0001000c <_exit>:
	...

Disassembly of section .exceptions:

00010020 <alt_exception>:

#else /* ALT_EXCEPTION_STACK disabled */
        /* 
         * Reserve space on normal stack for registers about to be pushed.
         */
        addi  sp, sp, -76
   10020:	deffed04 	addi	sp,sp,-76
         * documentation for details).
         *
         * Leave a gap in the stack frame at 4(sp) for the muldiv handler to
         * store zero into.
         */
        stw   ra,  0(sp)
   10024:	dfc00015 	stw	ra,0(sp)
        stw   r1,   8(sp)
   10028:	d8400215 	stw	at,8(sp)
        stw   r2,  12(sp)
   1002c:	d8800315 	stw	r2,12(sp)
        stw   r3,  16(sp)
   10030:	d8c00415 	stw	r3,16(sp)
        stw   r4,  20(sp)
   10034:	d9000515 	stw	r4,20(sp)
        stw   r5,  24(sp)
   10038:	d9400615 	stw	r5,24(sp)
        stw   r6,  28(sp)
   1003c:	d9800715 	stw	r6,28(sp)
        stw   r7,  32(sp)
   10040:	d9c00815 	stw	r7,32(sp)
        rdctl r5, estatus   /* Read early to avoid usage stall */
   10044:	000b307a 	rdctl	r5,estatus
        stw   r8,  36(sp)
   10048:	da000915 	stw	r8,36(sp)
        stw   r9,  40(sp)
   1004c:	da400a15 	stw	r9,40(sp)
        stw   r10, 44(sp)
   10050:	da800b15 	stw	r10,44(sp)
        stw   r11, 48(sp)
   10054:	dac00c15 	stw	r11,48(sp)
        stw   r12, 52(sp)
   10058:	db000d15 	stw	r12,52(sp)
        stw   r13, 56(sp)
   1005c:	db400e15 	stw	r13,56(sp)
        stw   r14, 60(sp)
   10060:	db800f15 	stw	r14,60(sp)
        stw   r15, 64(sp)
   10064:	dbc01015 	stw	r15,64(sp)
        /*
         * ea-4 contains the address of the instruction being executed
         * when the exception occured. For interrupt exceptions, we will
         * will be re-issue the isntruction. Store it in 72(sp)
         */
        stw   r5,  68(sp)  /* estatus */
   10068:	d9401115 	stw	r5,68(sp)
        addi  r15, ea, -4  /* instruction that caused exception */
   1006c:	ebffff04 	addi	r15,ea,-4
        stw   r15,  72(sp)
   10070:	dbc01215 	stw	r15,72(sp)
#else
        /*
         * Test to see if the exception was a software exception or caused 
         * by an external interrupt, and vector accordingly.
         */
        rdctl r4, ipending
   10074:	0009313a 	rdctl	r4,ipending
        andi  r2, r5, 1
   10078:	2880004c 	andi	r2,r5,1
        beq   r2, zero, .Lnot_irq
   1007c:	10000326 	beq	r2,zero,1008c <alt_exception+0x6c>
        beq   r4, zero, .Lnot_irq
   10080:	20000226 	beq	r4,zero,1008c <alt_exception+0x6c>
        /*
         * Now that all necessary registers have been preserved, call 
         * alt_irq_handler() to process the interrupts.
         */

        call alt_irq_handler
   10084:	00100fc0 	call	100fc <alt_irq_handler>

        .section .exceptions.irqreturn, "xa"

        br    .Lexception_exit
   10088:	00000706 	br	100a8 <alt_exception+0x88>
         * upon completion, so we write ea (address of instruction *after*
         * the one where the exception occured) into 72(sp). The actual
         * instruction that caused the exception is written in r2, which these
         * handlers will utilize.
         */
        stw ea, 72(sp) /* EA is PC+4 so will skip over instruction causing exception */
   1008c:	df401215 	stw	ea,72(sp)
.Lunknown_16bit:
        addi.n r4, r4, 2 /* Need PC+2 to skip over instruction causing exception */
        stw r4, 72(sp)

#else /* CDX is not Enabled and all instructions are 32bits */
        ldw r2, -4(ea) /* Instruction value that caused exception */
   10090:	e8bfff17 	ldw	r2,-4(ea)
         * debugger is present) or go into an infinite loop since the
         * handling behavior is undefined; in that case we will not return here.
         */

        /* Load exception-causing address as first argument (r4) */
        addi   r4, ea, -4
   10094:	e93fff04 	addi	r4,ea,-4

        /* Call the instruction-exception entry */
        call   alt_instruction_exception_entry
   10098:	001015c0 	call	1015c <alt_instruction_exception_entry>
         * instruction
         *
         * Return code was 0: Skip. The instruction after the exception is
         * already stored in 72(sp).
         */
        bne   r2, r0, .Lexception_exit
   1009c:	1000021e 	bne	r2,zero,100a8 <alt_exception+0x88>

        /*
         * Otherwise, modify 72(sp) to re-issue the instruction that caused the
         * exception.
         */
        addi  r15, ea, -4  /* instruction that caused exception */
   100a0:	ebffff04 	addi	r15,ea,-4
        stw   r15,  72(sp)
   100a4:	dbc01215 	stw	r15,72(sp)
        /* 
         * Restore the saved registers, so that all general purpose registers 
         * have been restored to their state at the time the interrupt occured.
         */

        ldw   r5,  68(sp)
   100a8:	d9401117 	ldw	r5,68(sp)
        ldw   ea,  72(sp)  /* This becomes the PC once eret is executed */
   100ac:	df401217 	ldw	ea,72(sp)
        ldw   ra,   0(sp)
   100b0:	dfc00017 	ldw	ra,0(sp)

        wrctl estatus, r5
   100b4:	2801707a 	wrctl	estatus,r5

        ldw   r1,   8(sp)
   100b8:	d8400217 	ldw	at,8(sp)
        ldw   r2,  12(sp)
   100bc:	d8800317 	ldw	r2,12(sp)
        ldw   r3,  16(sp)
   100c0:	d8c00417 	ldw	r3,16(sp)
        ldw   r4,  20(sp)
   100c4:	d9000517 	ldw	r4,20(sp)
        ldw   r5,  24(sp)
   100c8:	d9400617 	ldw	r5,24(sp)
        ldw   r6,  28(sp)
   100cc:	d9800717 	ldw	r6,28(sp)
        ldw   r7,  32(sp)
   100d0:	d9c00817 	ldw	r7,32(sp)

#if defined(ALT_EXCEPTION_STACK) && defined(ALT_STACK_CHECK)
        ldw   et, %gprel(alt_exception_old_stack_limit)(gp)
#endif

        ldw   r8,  36(sp)
   100d4:	da000917 	ldw	r8,36(sp)
        ldw   r9,  40(sp)
   100d8:	da400a17 	ldw	r9,40(sp)
        ldw   r10, 44(sp)
   100dc:	da800b17 	ldw	r10,44(sp)
        ldw   r11, 48(sp)
   100e0:	dac00c17 	ldw	r11,48(sp)
        ldw   r12, 52(sp)
   100e4:	db000d17 	ldw	r12,52(sp)
        ldw   r13, 56(sp)
   100e8:	db400e17 	ldw	r13,56(sp)
        ldw   r14, 60(sp)
   100ec:	db800f17 	ldw	r14,60(sp)
        ldw   r15, 64(sp)
   100f0:	dbc01017 	ldw	r15,64(sp)
        stw   et, %gprel(alt_stack_limit_value)(gp)
        stw   zero, %gprel(alt_exception_old_stack_limit)(gp)
#endif /* ALT_STACK_CHECK */
        ldw   sp,  76(sp)
#else /* ALT_EXCEPTION_STACK disabled */
        addi  sp, sp, 76
   100f4:	dec01304 	addi	sp,sp,76

        /*
         * Return to the interrupted instruction.
         */

        eret
   100f8:	ef80083a 	eret

000100fc <alt_irq_handler>:
 * instruction is present if the macro ALT_CI_INTERRUPT_VECTOR defined.
 */

void alt_irq_handler (void) __attribute__ ((section (".exceptions")));
void alt_irq_handler (void)
{
   100fc:	defffe04 	addi	sp,sp,-8
   10100:	dfc00115 	stw	ra,4(sp)
   10104:	dc000015 	stw	r16,0(sp)
#ifndef NIOS2_EIC_PRESENT
static ALT_INLINE alt_u32 ALT_ALWAYS_INLINE alt_irq_pending (void)
{
  alt_u32 active;

  NIOS2_READ_IPENDING (active);
   10108:	0007313a 	rdctl	r3,ipending
      if (active & mask)
      { 
#ifdef ALT_ENHANCED_INTERRUPT_API_PRESENT
        alt_irq[i].handler(alt_irq[i].context); 
#else
        alt_irq[i].handler(alt_irq[i].context, i); 
   1010c:	04000074 	movhi	r16,1
   10110:	8409fa04 	addi	r16,r16,10216
    i = 0;
   10114:	000b883a 	mov	r5,zero
    mask = 1;
   10118:	00800044 	movi	r2,1
      if (active & mask)
   1011c:	1888703a 	and	r4,r3,r2
   10120:	20000b26 	beq	r4,zero,10150 <alt_irq_handler+0x54>
        alt_irq[i].handler(alt_irq[i].context, i); 
   10124:	280490fa 	slli	r2,r5,3
   10128:	8085883a 	add	r2,r16,r2
   1012c:	10c00017 	ldw	r3,0(r2)
   10130:	11000117 	ldw	r4,4(r2)
   10134:	183ee83a 	callr	r3
   10138:	0007313a 	rdctl	r3,ipending

    } while (1);

    active = alt_irq_pending ();
    
  } while (active);
   1013c:	183ff51e 	bne	r3,zero,10114 <alt_irq_handler+0x18>
  /*
   * Notify the operating system that interrupt processing is complete.
   */ 

  ALT_OS_INT_EXIT();
}
   10140:	dfc00117 	ldw	ra,4(sp)
   10144:	dc000017 	ldw	r16,0(sp)
   10148:	dec00204 	addi	sp,sp,8
   1014c:	f800283a 	ret
      mask <<= 1;
   10150:	1004907a 	slli	r2,r2,1
      i++;
   10154:	29400044 	addi	r5,r5,1
      if (active & mask)
   10158:	003ff006 	br	1011c <alt_irq_handler+0x20>

0001015c <alt_instruction_exception_entry>:
#else
  cause = NIOS2_EXCEPTION_CAUSE_NOT_PRESENT;
  badaddr = 0;
#endif /* NIOS2_HAS_EXTRA_EXCEPTION_INFO */

  if(alt_instruction_exception_handler) {
   1015c:	d0a07b17 	ldw	r2,-32276(gp)
{
   10160:	200b883a 	mov	r5,r4
  if(alt_instruction_exception_handler) {
   10164:	10000326 	beq	r2,zero,10174 <alt_instruction_exception_entry+0x18>
     * Call handler. Its return value indicates whether the exception-causing
     * instruction should be re-issued. The code that called us,
     * alt_eceptions_entry.S, will look at this value and adjust the ea
     * register as necessary
     */
    return alt_instruction_exception_handler(cause, exception_pc, badaddr);
   10168:	000d883a 	mov	r6,zero
   1016c:	013fffc4 	movi	r4,-1
   10170:	1000683a 	jmp	r2
   *    (a peripheral which negates its interrupt output before its
   *    interrupt handler has been executed will cause spurious interrupts)
   */
  else {
#ifdef NIOS2_HAS_DEBUG_STUB
    NIOS2_BREAK();
   10174:	003da03a 	break	0
#endif /* NIOS2_HAS_DEBUG_STUB */
  }

  /* We should not get here. Remove compiler warning. */
  return NIOS2_EXCEPTION_RETURN_REISSUE_INST;
}
   10178:	0005883a 	mov	r2,zero
   1017c:	f800283a 	ret

Disassembly of section .text:

00010180 <_start>:

    /*
     * Now that the caches are initialized, set up the stack pointer and global pointer.
     * The values provided by the linker are assumed to be correctly aligned.
     */
    movhi sp, %hi(__alt_stack_pointer)
   10180:	06c000b4 	movhi	sp,2
    ori sp, sp, %lo(__alt_stack_pointer)
   10184:	dec00014 	ori	sp,sp,0
    movhi gp, %hi(_gp)
   10188:	06800074 	movhi	gp,1
    ori gp, gp, %lo(_gp)
   1018c:	d6a97e14 	ori	gp,gp,42488
 */
#ifndef ALT_SIM_OPTIMIZE
    /* Log that the BSS is about to be cleared. */
    ALT_LOG_PUTS(alt_log_msg_bss)

    movhi r2, %hi(__bss_start)
   10190:	00800074 	movhi	r2,1
    ori r2, r2, %lo(__bss_start)
   10194:	1089ee14 	ori	r2,r2,10168

    movhi r3, %hi(__bss_end)
   10198:	00c00074 	movhi	r3,1
    ori r3, r3, %lo(__bss_end)
   1019c:	18ca3a14 	ori	r3,r3,10472

    beq r2, r3, 1f
   101a0:	10c00326 	beq	r2,r3,101b0 <_start+0x30>

0:
    stw zero, (r2)
   101a4:	10000015 	stw	zero,0(r2)
    addi r2, r2, 4
   101a8:	10800104 	addi	r2,r2,4
    bltu r2, r3, 0b
   101ac:	10fffd36 	bltu	r2,r3,101a4 <_start+0x24>
     * section aren't defined until alt_load() has been called).
     */
    mov   et, zero
#endif

    call alt_load
   101b0:	0011d380 	call	11d38 <alt_load>

    /* Log that alt_main is about to be called. */
    ALT_LOG_PUTS(alt_log_msg_alt_main)

    /* Call the C entry point. It should never return. */
    call alt_main
   101b4:	0011dec0 	call	11dec <alt_main>

000101b8 <alt_after_alt_main>:

    /* Wait in infinite loop in case alt_main does return. */
alt_after_alt_main:
    br alt_after_alt_main
   101b8:	003fff06 	br	101b8 <alt_after_alt_main>

000101bc <accelerometer_isr>:
// timer is decreasing value every time
// check if the time difference is small enough, in which case ignore the tap

void accelerometer_isr(){
  alt_8 data;
  alt_up_accelerometer_spi_read(acc_dev, 0x30, &data); // read INT source to clear interrupt
   101bc:	d1207317 	ldw	r4,-32308(gp)
void accelerometer_isr(){
   101c0:	defffd04 	addi	sp,sp,-12
  alt_up_accelerometer_spi_read(acc_dev, 0x30, &data); // read INT source to clear interrupt
   101c4:	d98000c4 	addi	r6,sp,3
   101c8:	01400c04 	movi	r5,48
void accelerometer_isr(){
   101cc:	dfc00215 	stw	ra,8(sp)
   101d0:	dc000115 	stw	r16,4(sp)
  alt_up_accelerometer_spi_read(acc_dev, 0x30, &data); // read INT source to clear interrupt
   101d4:	0011fd40 	call	11fd4 <alt_up_accelerometer_spi_read>
  

  // perform write operation to save a snapshot of counter value in snap reg
  IOWR_ALTERA_AVALON_TIMER_SNAPH(TIMER_0_BASE, 0x1); // value of data doesn't matter
   101d8:	00c00044 	movi	r3,1
   101dc:	008000b4 	movhi	r2,2
   101e0:	10c41535 	stwio	r3,4180(r2)
  alt_32 curr_time = IORD_ALTERA_AVALON_TIMER_SNAPH(TIMER_0_BASE);
   101e4:	14041537 	ldwio	r16,4180(r2)
  // printf("%u\n", curr_time);

  if ( prev_time - curr_time > 15 ){ // valid tap about 20 ms
   101e8:	d0a07017 	ldw	r2,-32320(gp)
   101ec:	1405c83a 	sub	r2,r2,r16
   101f0:	10800410 	cmplti	r2,r2,16
   101f4:	1000141e 	bne	r2,zero,10248 <accelerometer_isr+0x8c>
    alt_putstr("tap:");
   101f8:	01000074 	movhi	r4,1
   101fc:	2108ae04 	addi	r4,r4,8888
   10200:	0011e200 	call	11e20 <alt_putstr>
    int elapsed_time = ((prev_time - curr_time) << 16 ) / 50e3; // time in milliseconds 
   10204:	d1207017 	ldw	r4,-32320(gp)
   10208:	2409c83a 	sub	r4,r4,r16
   1020c:	2008943a 	slli	r4,r4,16
   10210:	0010fd00 	call	10fd0 <__floatsidf>
   10214:	01d03a34 	movhi	r7,16616
   10218:	000d883a 	mov	r6,zero
   1021c:	39da8004 	addi	r7,r7,27136
   10220:	1009883a 	mov	r4,r2
   10224:	180b883a 	mov	r5,r3
   10228:	001061c0 	call	1061c <__divdf3>
   1022c:	1009883a 	mov	r4,r2
   10230:	180b883a 	mov	r5,r3
   10234:	0010f500 	call	10f50 <__fixdfsi>
    printf("%d\n", elapsed_time);
   10238:	01000074 	movhi	r4,1
   1023c:	100b883a 	mov	r5,r2
   10240:	2108b004 	addi	r4,r4,8896
   10244:	00115180 	call	11518 <printf>
    // tap_counter++;
    // printf("%d\n", tap_counter);
  }

  prev_time = curr_time;
   10248:	d4207015 	stw	r16,-32320(gp)
}
   1024c:	dfc00217 	ldw	ra,8(sp)
   10250:	dc000117 	ldw	r16,4(sp)
   10254:	dec00304 	addi	sp,sp,12
   10258:	f800283a 	ret

0001025c <timer_0_init>:
    IOWR_ALTERA_AVALON_TIMER_CONTROL(TIMER_0_BASE, 0x0002);
   1025c:	00c00084 	movi	r3,2
   10260:	008000b4 	movhi	r2,2
   10264:	10c41135 	stwio	r3,4164(r2)
    IOWR_ALTERA_AVALON_TIMER_STATUS(TIMER_0_BASE, 0);
   10268:	10041035 	stwio	zero,4160(r2)
    IOWR_ALTERA_AVALON_TIMER_PERIODL(TIMER_0_BASE, 0xFFFF);
   1026c:	00bfffd4 	movui	r2,65535
   10270:	00c000b4 	movhi	r3,2
   10274:	18841235 	stwio	r2,4168(r3)
    IOWR_ALTERA_AVALON_TIMER_PERIODH(TIMER_0_BASE, 0xFFFF); 
   10278:	18841335 	stwio	r2,4172(r3)
    IOWR_ALTERA_AVALON_TIMER_CONTROL(TIMER_0_BASE, 0x0006); // 0b0...0111
   1027c:	00c00184 	movi	r3,6
   10280:	008000b4 	movhi	r2,2
   10284:	10c41135 	stwio	r3,4164(r2)
}
   10288:	f800283a 	ret

0001028c <timer_1_init>:
void timer_1_init() {
   1028c:	deffff04 	addi	sp,sp,-4
   10290:	dfc00015 	stw	ra,0(sp)
  IOWR_ALTERA_AVALON_TIMER_CONTROL(TIMER_1_BASE, 0x0003);
   10294:	00c000c4 	movi	r3,3
   10298:	008000b4 	movhi	r2,2
   1029c:	10c40935 	stwio	r3,4132(r2)
  IOWR_ALTERA_AVALON_TIMER_STATUS(TIMER_1_BASE, 0);
   102a0:	10040835 	stwio	zero,4128(r2)
  IOWR_ALTERA_AVALON_TIMER_PERIODL(TIMER_1_BASE, 0xF080);
   102a4:	00fc2014 	movui	r3,61568
   102a8:	10c40a35 	stwio	r3,4136(r2)
  IOWR_ALTERA_AVALON_TIMER_PERIODH(TIMER_1_BASE, 0x02FA); 
   102ac:	00c0be84 	movi	r3,762
   102b0:	10c40b35 	stwio	r3,4140(r2)
  alt_irq_register(TIMER_1_IRQ, 0, updateTextISR);
   102b4:	01800074 	movhi	r6,1
   102b8:	31812e04 	addi	r6,r6,1208
   102bc:	000b883a 	mov	r5,zero
   102c0:	01000104 	movi	r4,4
   102c4:	0011ca80 	call	11ca8 <alt_irq_register>
  IOWR_ALTERA_AVALON_TIMER_CONTROL(TIMER_1_BASE, 0x0007); // 0b0...0111
   102c8:	00c001c4 	movi	r3,7
   102cc:	008000b4 	movhi	r2,2
   102d0:	10c40935 	stwio	r3,4132(r2)
}
   102d4:	dfc00017 	ldw	ra,0(sp)
   102d8:	dec00104 	addi	sp,sp,4
   102dc:	f800283a 	ret

000102e0 <compare_strings>:

int compare_strings(char * string_1, char * string_2){
    int i = 0;
   102e0:	0005883a 	mov	r2,zero
    while(string_1[i] != '\0' && string_2[i] != '\0'){
   102e4:	2087883a 	add	r3,r4,r2
   102e8:	19800007 	ldb	r6,0(r3)
   102ec:	30000326 	beq	r6,zero,102fc <compare_strings+0x1c>
   102f0:	2887883a 	add	r3,r5,r2
   102f4:	18c00007 	ldb	r3,0(r3)
   102f8:	1800021e 	bne	r3,zero,10304 <compare_strings+0x24>
        if(string_1[i] != string_2[i]) return 0;
        i++;
    }

    return 1;
   102fc:	00800044 	movi	r2,1
}
   10300:	f800283a 	ret
        if(string_1[i] != string_2[i]) return 0;
   10304:	30c0021e 	bne	r6,r3,10310 <compare_strings+0x30>
        i++;
   10308:	10800044 	addi	r2,r2,1
   1030c:	003ff506 	br	102e4 <compare_strings+0x4>
        if(string_1[i] != string_2[i]) return 0;
   10310:	0005883a 	mov	r2,zero
   10314:	f800283a 	ret

00010318 <readText>:

void readText(){
   10318:	defffc04 	addi	sp,sp,-16
   1031c:	dfc00315 	stw	ra,12(sp)
   10320:	dc000015 	stw	r16,0(sp)
   10324:	dc800215 	stw	r18,8(sp)
   10328:	dc400115 	stw	r17,4(sp)
    char newChar = alt_getchar();  // blocking function that waits for information by the python program
   1032c:	0011c680 	call	11c68 <alt_getchar>
    alt_up_accelerometer_spi_write(acc_dev, 0x2E, 0b00000000); // disble single tap to generate interrupts, stop the acceleometer from generating taps and possibly breaking the uart communication
   10330:	d1207317 	ldw	r4,-32308(gp)
   10334:	000d883a 	mov	r6,zero
   10338:	01400b84 	movi	r5,46
    char newChar = alt_getchar();  // blocking function that waits for information by the python program
   1033c:	1021883a 	mov	r16,r2
    alt_up_accelerometer_spi_write(acc_dev, 0x2E, 0b00000000); // disble single tap to generate interrupts, stop the acceleometer from generating taps and possibly breaking the uart communication
   10340:	0011ff40 	call	11ff4 <alt_up_accelerometer_spi_write>
    IOWR_ALTERA_AVALON_TIMER_CONTROL(TIMER_1_BASE, 0x000b); // 0b...1011; stop the timer while reading values 
   10344:	00c002c4 	movi	r3,11
   10348:	008000b4 	movhi	r2,2
   1034c:	10c40935 	stwio	r3,4132(r2)
    
    char *text = calloc(CHARLIM, sizeof(char)); 
   10350:	01400044 	movi	r5,1
   10354:	01004004 	movi	r4,256
   10358:	00112bc0 	call	112bc <calloc>
   1035c:	1023883a 	mov	r17,r2
    int i_txt = 0;
    while (newChar != EOF && newChar != '\n' && i_txt < CHARLIM) <%
   10360:	0025883a 	mov	r18,zero
   10364:	80803fcc 	andi	r2,r16,255
   10368:	1080201c 	xori	r2,r2,128
   1036c:	10bfe004 	addi	r2,r2,-128
   10370:	113fffe0 	cmpeqi	r4,r2,-1
   10374:	8c87883a 	add	r3,r17,r18
   10378:	2000041e 	bne	r4,zero,1038c <readText+0x74>
   1037c:	108002a0 	cmpeqi	r2,r2,10
   10380:	1000021e 	bne	r2,zero,1038c <readText+0x74>
   10384:	90804018 	cmpnei	r2,r18,256
   10388:	1000251e 	bne	r2,zero,10420 <readText+0x108>
        text[i_txt++] = newChar;
        newChar = alt_getchar();
    %>

    text[i_txt] = '\0'; // string terminator
   1038c:	18000005 	stb	zero,0(r3)

    if (!currMsg.text) currMsg.text = calloc(CHARLIM, sizeof(char)); 
   10390:	d0a07117 	ldw	r2,-32316(gp)
   10394:	10002e1e 	bne	r2,zero,10450 <readText+0x138>
   10398:	01400044 	movi	r5,1
   1039c:	01004004 	movi	r4,256
   103a0:	00112bc0 	call	112bc <calloc>
   103a4:	d0a07115 	stw	r2,-32316(gp)
    else {
      // memset(currMsg.text, '\0', CHARLIM);
      for (int i = 0; i < currMsg.length; i++) currMsg.text[i] = 0;
    }

    memcpy(currMsg.text, text, i_txt * sizeof(char)); // copy data
   103a8:	d1207117 	ldw	r4,-32316(gp)
   103ac:	900d883a 	mov	r6,r18
   103b0:	880b883a 	mov	r5,r17
   103b4:	00112d00 	call	112d0 <memcpy>
    currMsg.length = i_txt;

    printf("I just received:'");
   103b8:	01000074 	movhi	r4,1
   103bc:	2108b104 	addi	r4,r4,8900
    currMsg.length = i_txt;
   103c0:	d4a07215 	stw	r18,-32312(gp)
    printf("I just received:'");
   103c4:	00115180 	call	11518 <printf>
    alt_putstr(text);
   103c8:	8809883a 	mov	r4,r17
   103cc:	0011e200 	call	11e20 <alt_putstr>
    alt_putstr("'\n");
   103d0:	01000074 	movhi	r4,1
   103d4:	2108b604 	addi	r4,r4,8920
   103d8:	0011e200 	call	11e20 <alt_putstr>

    memset(text, 0, 2*CHARLIM);
   103dc:	8809883a 	mov	r4,r17
   103e0:	01808004 	movi	r6,512
   103e4:	000b883a 	mov	r5,zero
   103e8:	00112f80 	call	112f8 <memset>

    alt_up_accelerometer_spi_write(acc_dev, 0x2E, 0b01000000); // enable single tap to generate interrupts
   103ec:	d1207317 	ldw	r4,-32308(gp)
   103f0:	01801004 	movi	r6,64
   103f4:	01400b84 	movi	r5,46
   103f8:	0011ff40 	call	11ff4 <alt_up_accelerometer_spi_write>
    IOWR_ALTERA_AVALON_TIMER_CONTROL(TIMER_1_BASE, 0x0007); // 0b...1011; start the timer up again
   103fc:	00c001c4 	movi	r3,7
   10400:	008000b4 	movhi	r2,2
   10404:	10c40935 	stwio	r3,4132(r2)

    return;  
}
   10408:	dfc00317 	ldw	ra,12(sp)
   1040c:	dc800217 	ldw	r18,8(sp)
   10410:	dc400117 	ldw	r17,4(sp)
   10414:	dc000017 	ldw	r16,0(sp)
   10418:	dec00404 	addi	sp,sp,16
   1041c:	f800283a 	ret
        text[i_txt++] = newChar;
   10420:	1c000005 	stb	r16,0(r3)
        newChar = alt_getchar();
   10424:	0011c680 	call	11c68 <alt_getchar>
   10428:	1021883a 	mov	r16,r2
   1042c:	94800044 	addi	r18,r18,1
   10430:	003fcc06 	br	10364 <readText+0x4c>
      for (int i = 0; i < currMsg.length; i++) currMsg.text[i] = 0;
   10434:	1887883a 	add	r3,r3,r2
   10438:	18000005 	stb	zero,0(r3)
   1043c:	10800044 	addi	r2,r2,1
   10440:	d1207217 	ldw	r4,-32312(gp)
   10444:	d0e07117 	ldw	r3,-32316(gp)
   10448:	113ffa16 	blt	r2,r4,10434 <readText+0x11c>
   1044c:	003fd606 	br	103a8 <readText+0x90>
   10450:	0005883a 	mov	r2,zero
   10454:	003ffa06 	br	10440 <readText+0x128>

00010458 <print7seg>:


//Prints each of the letters out to the screen
void print7seg(const char letters[6]){
	//Takes the binary value for each letter and places it on each of the six 7-segment displays
	IOWR_ALTERA_AVALON_PIO_DATA(HEX_5_BASE, letters[0]);
   10458:	20c00007 	ldb	r3,0(r4)
   1045c:	008000b4 	movhi	r2,2
   10460:	10c41835 	stwio	r3,4192(r2)
	IOWR_ALTERA_AVALON_PIO_DATA(HEX_4_BASE, letters[1]);
   10464:	20c00047 	ldb	r3,1(r4)
   10468:	10c41c35 	stwio	r3,4208(r2)
	IOWR_ALTERA_AVALON_PIO_DATA(HEX_3_BASE, letters[3]);
   1046c:	20c000c7 	ldb	r3,3(r4)
   10470:	10c42035 	stwio	r3,4224(r2)
	IOWR_ALTERA_AVALON_PIO_DATA(HEX_2_BASE, letters[4]);
   10474:	20c00107 	ldb	r3,4(r4)
   10478:	10c42435 	stwio	r3,4240(r2)
	IOWR_ALTERA_AVALON_PIO_DATA(HEX_1_BASE, letters[5]);
   1047c:	20c00147 	ldb	r3,5(r4)
   10480:	10c42835 	stwio	r3,4256(r2)
	IOWR_ALTERA_AVALON_PIO_DATA(HEX_0_BASE, letters[6]);
   10484:	20c00187 	ldb	r3,6(r4)
   10488:	10c42c35 	stwio	r3,4272(r2)
	return;
}
   1048c:	f800283a 	ret

00010490 <getBin>:
int getBin(char letter){
	/*Based on the character entered, we convert to binary so the 7-segment knows which lights to turn on.
	The 7-segment has inverted logic so a 0 means the light is on and a 1 means the light is off.
	The rightmost bit starts the index at HEX#[0], and the leftmost bit is HEX#[6], the pattern
	for the 7-segment is shown in the DE0_C5 User Manual*/
	switch(letter){
   10490:	213ff404 	addi	r4,r4,-48
   10494:	21003fcc 	andi	r4,r4,255
   10498:	20800ae8 	cmpgeui	r2,r4,43
   1049c:	1000041e 	bne	r2,zero,104b0 <getBin+0x20>
   104a0:	00800074 	movhi	r2,1
   104a4:	2085883a 	add	r2,r4,r2
   104a8:	1088d5c3 	ldbu	r2,9047(r2)
   104ac:	f800283a 	ret
   104b0:	00803fc4 	movi	r2,255
	case 'Z':
		return 0b0100100;
	default:
		return 0b11111111;
	}
}
   104b4:	f800283a 	ret

000104b8 <updateTextISR>:
void updateTextISR() {
   104b8:	defff904 	addi	sp,sp,-28
   104bc:	dfc00615 	stw	ra,24(sp)
   104c0:	dcc00515 	stw	r19,20(sp)
   104c4:	dc800415 	stw	r18,16(sp)
   104c8:	dc400315 	stw	r17,12(sp)
   104cc:	dc000215 	stw	r16,8(sp)
  IOWR_ALTERA_AVALON_TIMER_STATUS(TIMER_1_BASE, 0);
   104d0:	008000b4 	movhi	r2,2
   104d4:	10040835 	stwio	zero,4128(r2)
  printf("printing %s of length %d\n", currMsg.text, currMsg.length);
   104d8:	d1a07217 	ldw	r6,-32312(gp)
   104dc:	d1607117 	ldw	r5,-32316(gp)
   104e0:	01000074 	movhi	r4,1
   104e4:	2108cd04 	addi	r4,r4,9012
   104e8:	00115180 	call	11518 <printf>
  if (currMsg.length <= 6){
   104ec:	d4607217 	ldw	r17,-32312(gp)
   104f0:	888001c8 	cmpgei	r2,r17,7
   104f4:	10000b1e 	bne	r2,zero,10524 <updateTextISR+0x6c>
    char buffer[6] = {0xFF,0xFF,0xFF,0xFF,0xFF,0xFF};
   104f8:	01400074 	movhi	r5,1
   104fc:	01800184 	movi	r6,6
   10500:	2948d404 	addi	r5,r5,9040
   10504:	d9000084 	addi	r4,sp,2
   10508:	00112d00 	call	112d0 <memcpy>
      buffer[i] = getBin(currMsg.text[i]) | 0b10000000;
   1050c:	d4a07117 	ldw	r18,-32316(gp)
    for (int i = 0; i < currMsg.length; i++){
   10510:	0021883a 	mov	r16,zero
      buffer[i] = getBin(currMsg.text[i]) | 0b10000000;
   10514:	04ffe004 	movi	r19,-128
    for (int i = 0; i < currMsg.length; i++){
   10518:	84400916 	blt	r16,r17,10540 <updateTextISR+0x88>
    print7seg(buffer);
   1051c:	d9000084 	addi	r4,sp,2
   10520:	00104580 	call	10458 <print7seg>
}
   10524:	dfc00617 	ldw	ra,24(sp)
   10528:	dcc00517 	ldw	r19,20(sp)
   1052c:	dc800417 	ldw	r18,16(sp)
   10530:	dc400317 	ldw	r17,12(sp)
   10534:	dc000217 	ldw	r16,8(sp)
   10538:	dec00704 	addi	sp,sp,28
   1053c:	f800283a 	ret
      buffer[i] = getBin(currMsg.text[i]) | 0b10000000;
   10540:	9405883a 	add	r2,r18,r16
   10544:	11000007 	ldb	r4,0(r2)
   10548:	00104900 	call	10490 <getBin>
   1054c:	d8c00084 	addi	r3,sp,2
   10550:	1c07883a 	add	r3,r3,r16
   10554:	14c4b03a 	or	r2,r2,r19
   10558:	18800005 	stb	r2,0(r3)
    for (int i = 0; i < currMsg.length; i++){
   1055c:	84000044 	addi	r16,r16,1
   10560:	003fed06 	br	10518 <updateTextISR+0x60>

00010564 <main>:
  alt_putstr("Hello from Nios II!\n");
   10564:	01000074 	movhi	r4,1
{ 
   10568:	deffff04 	addi	sp,sp,-4
  alt_putstr("Hello from Nios II!\n");
   1056c:	2108b704 	addi	r4,r4,8924
{ 
   10570:	dfc00015 	stw	ra,0(sp)
  alt_putstr("Hello from Nios II!\n");
   10574:	0011e200 	call	11e20 <alt_putstr>
  alt_putstr("Printing 3 axis accelerometer info:\n");
   10578:	01000074 	movhi	r4,1
   1057c:	2108bd04 	addi	r4,r4,8948
   10580:	0011e200 	call	11e20 <alt_putstr>
  acc_dev = alt_up_accelerometer_spi_open_dev("/dev/accelerometer_spi");
   10584:	01000074 	movhi	r4,1
   10588:	2108c704 	addi	r4,r4,8988
   1058c:	0011fb80 	call	11fb8 <alt_up_accelerometer_spi_open_dev>
   10590:	d0a07315 	stw	r2,-32308(gp)
    if (acc_dev == NULL) { // if return 1, check if the spi ip name is "accelerometer_spi"
   10594:	10001d26 	beq	r2,zero,1060c <main+0xa8>
  alt_up_accelerometer_spi_write(acc_dev, 0x2A, 0b00000001); // enable tap on z axis only
   10598:	01800044 	movi	r6,1
   1059c:	01400a84 	movi	r5,42
   105a0:	1009883a 	mov	r4,r2
   105a4:	0011ff40 	call	11ff4 <alt_up_accelerometer_spi_write>
  alt_up_accelerometer_spi_write(acc_dev, 0x21, 0x10); // set DUR (0x10 = 10ms)
   105a8:	d1207317 	ldw	r4,-32308(gp)
   105ac:	01800404 	movi	r6,16
   105b0:	01400844 	movi	r5,33
   105b4:	0011ff40 	call	11ff4 <alt_up_accelerometer_spi_write>
  alt_up_accelerometer_spi_write(acc_dev, 0x1D ,0x16); // set THRESH_TAP (0x30 = 3g)
   105b8:	d1207317 	ldw	r4,-32308(gp)
   105bc:	01800584 	movi	r6,22
   105c0:	01400744 	movi	r5,29
   105c4:	0011ff40 	call	11ff4 <alt_up_accelerometer_spi_write>
  alt_up_accelerometer_spi_write(acc_dev, 0x2F, 0b10111111); // set SINGLE_TAP to INT_1 pin
   105c8:	d1207317 	ldw	r4,-32308(gp)
   105cc:	01802fc4 	movi	r6,191
   105d0:	01400bc4 	movi	r5,47
   105d4:	0011ff40 	call	11ff4 <alt_up_accelerometer_spi_write>
  alt_up_accelerometer_spi_write(acc_dev, 0x2E, 0b01000000); // enable single tap to generate interrupts
   105d8:	d1207317 	ldw	r4,-32308(gp)
   105dc:	01801004 	movi	r6,64
   105e0:	01400b84 	movi	r5,46
   105e4:	0011ff40 	call	11ff4 <alt_up_accelerometer_spi_write>
  alt_irq_register(ACCELEROMETER_SPI_IRQ, 0, accelerometer_isr);
   105e8:	01800074 	movhi	r6,1
   105ec:	31806f04 	addi	r6,r6,444
   105f0:	000b883a 	mov	r5,zero
   105f4:	0009883a 	mov	r4,zero
   105f8:	0011ca80 	call	11ca8 <alt_irq_register>
  timer_0_init();
   105fc:	001025c0 	call	1025c <timer_0_init>
  timer_1_init();
   10600:	001028c0 	call	1028c <timer_1_init>
    readText();
   10604:	00103180 	call	10318 <readText>
  while (1){
   10608:	003ffe06 	br	10604 <main+0xa0>
}
   1060c:	00800044 	movi	r2,1
   10610:	dfc00017 	ldw	ra,0(sp)
   10614:	dec00104 	addi	sp,sp,4
   10618:	f800283a 	ret

0001061c <__divdf3>:
   1061c:	2810d53a 	srli	r8,r5,20
   10620:	defff004 	addi	sp,sp,-64
   10624:	dc000615 	stw	r16,24(sp)
   10628:	04000434 	movhi	r16,16
   1062c:	df000e15 	stw	fp,56(sp)
   10630:	ddc00d15 	stw	r23,52(sp)
   10634:	dd800c15 	stw	r22,48(sp)
   10638:	dd000a15 	stw	r20,40(sp)
   1063c:	843fffc4 	addi	r16,r16,-1
   10640:	dfc00f15 	stw	ra,60(sp)
   10644:	dd400b15 	stw	r21,44(sp)
   10648:	dcc00915 	stw	r19,36(sp)
   1064c:	dc800815 	stw	r18,32(sp)
   10650:	dc400715 	stw	r17,28(sp)
   10654:	4201ffcc 	andi	r8,r8,2047
   10658:	282ed7fa 	srli	r23,r5,31
   1065c:	3039883a 	mov	fp,r6
   10660:	382d883a 	mov	r22,r7
   10664:	2029883a 	mov	r20,r4
   10668:	2c20703a 	and	r16,r5,r16
   1066c:	40005326 	beq	r8,zero,107bc <__divdf3+0x1a0>
   10670:	4081ffe0 	cmpeqi	r2,r8,2047
   10674:	1000641e 	bne	r2,zero,10808 <__divdf3+0x1ec>
   10678:	2026d77a 	srli	r19,r4,29
   1067c:	800a90fa 	slli	r5,r16,3
   10680:	202890fa 	slli	r20,r4,3
   10684:	44bf0044 	addi	r18,r8,-1023
   10688:	994ab03a 	or	r5,r19,r5
   1068c:	2cc02034 	orhi	r19,r5,128
   10690:	0021883a 	mov	r16,zero
   10694:	0023883a 	mov	r17,zero
   10698:	b010d53a 	srli	r8,r22,20
   1069c:	00c00434 	movhi	r3,16
   106a0:	18ffffc4 	addi	r3,r3,-1
   106a4:	4201ffcc 	andi	r8,r8,2047
   106a8:	b02ad7fa 	srli	r21,r22,31
   106ac:	b0ec703a 	and	r22,r22,r3
   106b0:	40005c26 	beq	r8,zero,10824 <__divdf3+0x208>
   106b4:	4081ffe0 	cmpeqi	r2,r8,2047
   106b8:	1000201e 	bne	r2,zero,1073c <__divdf3+0x120>
   106bc:	b00690fa 	slli	r3,r22,3
   106c0:	e004d77a 	srli	r2,fp,29
   106c4:	e01490fa 	slli	r10,fp,3
   106c8:	423f0044 	addi	r8,r8,-1023
   106cc:	10c6b03a 	or	r3,r2,r3
   106d0:	1d802034 	orhi	r22,r3,128
   106d4:	9225c83a 	sub	r18,r18,r8
   106d8:	0007883a 	mov	r3,zero
   106dc:	80800428 	cmpgeui	r2,r16,16
   106e0:	bd52f03a 	xor	r9,r23,r21
   106e4:	1000a81e 	bne	r2,zero,10988 <__divdf3+0x36c>
   106e8:	800c90ba 	slli	r6,r16,2
   106ec:	00800074 	movhi	r2,1
   106f0:	3085883a 	add	r2,r6,r2
   106f4:	1081bf17 	ldw	r2,1788(r2)
   106f8:	1000683a 	jmp	r2
   106fc:	00010988 	cmpgei	zero,zero,1062
   10700:	000107ac 	andhi	zero,zero,1054
   10704:	00010758 	cmpnei	zero,zero,1053
   10708:	000108d0 	cmplti	zero,zero,1059
   1070c:	00010758 	cmpnei	zero,zero,1053
   10710:	0001092c 	andhi	zero,zero,1060
   10714:	00010758 	cmpnei	zero,zero,1053
   10718:	000108d0 	cmplti	zero,zero,1059
   1071c:	000107ac 	andhi	zero,zero,1054
   10720:	000107ac 	andhi	zero,zero,1054
   10724:	0001092c 	andhi	zero,zero,1060
   10728:	000108d0 	cmplti	zero,zero,1059
   1072c:	00010868 	cmpgeui	zero,zero,1057
   10730:	00010868 	cmpgeui	zero,zero,1057
   10734:	00010868 	cmpgeui	zero,zero,1057
   10738:	00010944 	movi	zero,1061
   1073c:	b714b03a 	or	r10,r22,fp
   10740:	94be0044 	addi	r18,r18,-2047
   10744:	5000671e 	bne	r10,zero,108e4 <__divdf3+0x2c8>
   10748:	84000094 	ori	r16,r16,2
   1074c:	002d883a 	mov	r22,zero
   10750:	00c00084 	movi	r3,2
   10754:	003fe106 	br	106dc <__divdf3+0xc0>
   10758:	0007883a 	mov	r3,zero
   1075c:	000b883a 	mov	r5,zero
   10760:	0029883a 	mov	r20,zero
   10764:	1806953a 	slli	r3,r3,20
   10768:	4a403fcc 	andi	r9,r9,255
   1076c:	481297fa 	slli	r9,r9,31
   10770:	1946b03a 	or	r3,r3,r5
   10774:	a005883a 	mov	r2,r20
   10778:	1a46b03a 	or	r3,r3,r9
   1077c:	dfc00f17 	ldw	ra,60(sp)
   10780:	df000e17 	ldw	fp,56(sp)
   10784:	ddc00d17 	ldw	r23,52(sp)
   10788:	dd800c17 	ldw	r22,48(sp)
   1078c:	dd400b17 	ldw	r21,44(sp)
   10790:	dd000a17 	ldw	r20,40(sp)
   10794:	dcc00917 	ldw	r19,36(sp)
   10798:	dc800817 	ldw	r18,32(sp)
   1079c:	dc400717 	ldw	r17,28(sp)
   107a0:	dc000617 	ldw	r16,24(sp)
   107a4:	dec01004 	addi	sp,sp,64
   107a8:	f800283a 	ret
   107ac:	00c1ffc4 	movi	r3,2047
   107b0:	000b883a 	mov	r5,zero
   107b4:	0029883a 	mov	r20,zero
   107b8:	003fea06 	br	10764 <__divdf3+0x148>
   107bc:	2426b03a 	or	r19,r4,r16
   107c0:	2023883a 	mov	r17,r4
   107c4:	98004f26 	beq	r19,zero,10904 <__divdf3+0x2e8>
   107c8:	80017b26 	beq	r16,zero,10db8 <__divdf3+0x79c>
   107cc:	8009883a 	mov	r4,r16
   107d0:	001108c0 	call	1108c <__clzsi2>
   107d4:	113ffd44 	addi	r4,r2,-11
   107d8:	00c00744 	movi	r3,29
   107dc:	14fffe04 	addi	r19,r2,-8
   107e0:	1907c83a 	sub	r3,r3,r4
   107e4:	84ca983a 	sll	r5,r16,r19
   107e8:	88c6d83a 	srl	r3,r17,r3
   107ec:	8ce8983a 	sll	r20,r17,r19
   107f0:	1966b03a 	or	r19,r3,r5
   107f4:	023f0344 	movi	r8,-1011
   107f8:	40a5c83a 	sub	r18,r8,r2
   107fc:	0021883a 	mov	r16,zero
   10800:	0023883a 	mov	r17,zero
   10804:	003fa406 	br	10698 <__divdf3+0x7c>
   10808:	2426b03a 	or	r19,r4,r16
   1080c:	9800421e 	bne	r19,zero,10918 <__divdf3+0x2fc>
   10810:	0029883a 	mov	r20,zero
   10814:	04000204 	movi	r16,8
   10818:	0481ffc4 	movi	r18,2047
   1081c:	04400084 	movi	r17,2
   10820:	003f9d06 	br	10698 <__divdf3+0x7c>
   10824:	b714b03a 	or	r10,r22,fp
   10828:	50003226 	beq	r10,zero,108f4 <__divdf3+0x2d8>
   1082c:	b0016c26 	beq	r22,zero,10de0 <__divdf3+0x7c4>
   10830:	b009883a 	mov	r4,r22
   10834:	001108c0 	call	1108c <__clzsi2>
   10838:	117ffd44 	addi	r5,r2,-11
   1083c:	01000744 	movi	r4,29
   10840:	12bffe04 	addi	r10,r2,-8
   10844:	2149c83a 	sub	r4,r4,r5
   10848:	b286983a 	sll	r3,r22,r10
   1084c:	e108d83a 	srl	r4,fp,r4
   10850:	e294983a 	sll	r10,fp,r10
   10854:	20ecb03a 	or	r22,r4,r3
   10858:	1491883a 	add	r8,r2,r18
   1085c:	4480fcc4 	addi	r18,r8,1011
   10860:	0007883a 	mov	r3,zero
   10864:	003f9d06 	br	106dc <__divdf3+0xc0>
   10868:	b813883a 	mov	r9,r23
   1086c:	888000a0 	cmpeqi	r2,r17,2
   10870:	103fce1e 	bne	r2,zero,107ac <__divdf3+0x190>
   10874:	888000e0 	cmpeqi	r2,r17,3
   10878:	1001ac1e 	bne	r2,zero,10f2c <__divdf3+0x910>
   1087c:	88800060 	cmpeqi	r2,r17,1
   10880:	103fb51e 	bne	r2,zero,10758 <__divdf3+0x13c>
   10884:	9440ffc4 	addi	r17,r18,1023
   10888:	04411c0e 	bge	zero,r17,10cfc <__divdf3+0x6e0>
   1088c:	a08001cc 	andi	r2,r20,7
   10890:	1001831e 	bne	r2,zero,10ea0 <__divdf3+0x884>
   10894:	a008d0fa 	srli	r4,r20,3
   10898:	9880402c 	andhi	r2,r19,256
   1089c:	10000426 	beq	r2,zero,108b0 <__divdf3+0x294>
   108a0:	00bfc034 	movhi	r2,65280
   108a4:	10bfffc4 	addi	r2,r2,-1
   108a8:	98a6703a 	and	r19,r19,r2
   108ac:	94410004 	addi	r17,r18,1024
   108b0:	8881ffc8 	cmpgei	r2,r17,2047
   108b4:	103fbd1e 	bne	r2,zero,107ac <__divdf3+0x190>
   108b8:	9828977a 	slli	r20,r19,29
   108bc:	980a927a 	slli	r5,r19,9
   108c0:	88c1ffcc 	andi	r3,r17,2047
   108c4:	a128b03a 	or	r20,r20,r4
   108c8:	280ad33a 	srli	r5,r5,12
   108cc:	003fa506 	br	10764 <__divdf3+0x148>
   108d0:	a813883a 	mov	r9,r21
   108d4:	b027883a 	mov	r19,r22
   108d8:	5029883a 	mov	r20,r10
   108dc:	1823883a 	mov	r17,r3
   108e0:	003fe206 	br	1086c <__divdf3+0x250>
   108e4:	840000d4 	ori	r16,r16,3
   108e8:	e015883a 	mov	r10,fp
   108ec:	00c000c4 	movi	r3,3
   108f0:	003f7a06 	br	106dc <__divdf3+0xc0>
   108f4:	84000054 	ori	r16,r16,1
   108f8:	002d883a 	mov	r22,zero
   108fc:	00c00044 	movi	r3,1
   10900:	003f7606 	br	106dc <__divdf3+0xc0>
   10904:	0029883a 	mov	r20,zero
   10908:	04000104 	movi	r16,4
   1090c:	0025883a 	mov	r18,zero
   10910:	04400044 	movi	r17,1
   10914:	003f6006 	br	10698 <__divdf3+0x7c>
   10918:	8027883a 	mov	r19,r16
   1091c:	0481ffc4 	movi	r18,2047
   10920:	04000304 	movi	r16,12
   10924:	044000c4 	movi	r17,3
   10928:	003f5b06 	br	10698 <__divdf3+0x7c>
   1092c:	01400434 	movhi	r5,16
   10930:	0013883a 	mov	r9,zero
   10934:	297fffc4 	addi	r5,r5,-1
   10938:	053fffc4 	movi	r20,-1
   1093c:	00c1ffc4 	movi	r3,2047
   10940:	003f8806 	br	10764 <__divdf3+0x148>
   10944:	9880022c 	andhi	r2,r19,8
   10948:	10000926 	beq	r2,zero,10970 <__divdf3+0x354>
   1094c:	b080022c 	andhi	r2,r22,8
   10950:	1000071e 	bne	r2,zero,10970 <__divdf3+0x354>
   10954:	00800434 	movhi	r2,16
   10958:	b1400234 	orhi	r5,r22,8
   1095c:	10bfffc4 	addi	r2,r2,-1
   10960:	288a703a 	and	r5,r5,r2
   10964:	a813883a 	mov	r9,r21
   10968:	5029883a 	mov	r20,r10
   1096c:	003ff306 	br	1093c <__divdf3+0x320>
   10970:	00800434 	movhi	r2,16
   10974:	99400234 	orhi	r5,r19,8
   10978:	10bfffc4 	addi	r2,r2,-1
   1097c:	288a703a 	and	r5,r5,r2
   10980:	b813883a 	mov	r9,r23
   10984:	003fed06 	br	1093c <__divdf3+0x320>
   10988:	b4c10536 	bltu	r22,r19,10da0 <__divdf3+0x784>
   1098c:	b4c10326 	beq	r22,r19,10d9c <__divdf3+0x780>
   10990:	94bfffc4 	addi	r18,r18,-1
   10994:	a039883a 	mov	fp,r20
   10998:	9821883a 	mov	r16,r19
   1099c:	0023883a 	mov	r17,zero
   109a0:	b006923a 	slli	r3,r22,8
   109a4:	502cd63a 	srli	r22,r10,24
   109a8:	8009883a 	mov	r4,r16
   109ac:	182ed43a 	srli	r23,r3,16
   109b0:	b0ecb03a 	or	r22,r22,r3
   109b4:	da400015 	stw	r9,0(sp)
   109b8:	b80b883a 	mov	r5,r23
   109bc:	502a923a 	slli	r21,r10,8
   109c0:	b53fffcc 	andi	r20,r22,65535
   109c4:	00111d40 	call	111d4 <__udivsi3>
   109c8:	100b883a 	mov	r5,r2
   109cc:	a009883a 	mov	r4,r20
   109d0:	1027883a 	mov	r19,r2
   109d4:	00112940 	call	11294 <__mulsi3>
   109d8:	8009883a 	mov	r4,r16
   109dc:	b80b883a 	mov	r5,r23
   109e0:	1021883a 	mov	r16,r2
   109e4:	00112380 	call	11238 <__umodsi3>
   109e8:	1004943a 	slli	r2,r2,16
   109ec:	e008d43a 	srli	r4,fp,16
   109f0:	da400017 	ldw	r9,0(sp)
   109f4:	2088b03a 	or	r4,r4,r2
   109f8:	2400042e 	bgeu	r4,r16,10a0c <__divdf3+0x3f0>
   109fc:	2589883a 	add	r4,r4,r22
   10a00:	98bfffc4 	addi	r2,r19,-1
   10a04:	2581082e 	bgeu	r4,r22,10e28 <__divdf3+0x80c>
   10a08:	1027883a 	mov	r19,r2
   10a0c:	2421c83a 	sub	r16,r4,r16
   10a10:	b80b883a 	mov	r5,r23
   10a14:	8009883a 	mov	r4,r16
   10a18:	da400215 	stw	r9,8(sp)
   10a1c:	00111d40 	call	111d4 <__udivsi3>
   10a20:	100b883a 	mov	r5,r2
   10a24:	a009883a 	mov	r4,r20
   10a28:	d8800115 	stw	r2,4(sp)
   10a2c:	00112940 	call	11294 <__mulsi3>
   10a30:	b80b883a 	mov	r5,r23
   10a34:	8009883a 	mov	r4,r16
   10a38:	d8800015 	stw	r2,0(sp)
   10a3c:	00112380 	call	11238 <__umodsi3>
   10a40:	100c943a 	slli	r6,r2,16
   10a44:	d8c00017 	ldw	r3,0(sp)
   10a48:	e73fffcc 	andi	fp,fp,65535
   10a4c:	e18cb03a 	or	r6,fp,r6
   10a50:	d9c00117 	ldw	r7,4(sp)
   10a54:	da400217 	ldw	r9,8(sp)
   10a58:	30c0042e 	bgeu	r6,r3,10a6c <__divdf3+0x450>
   10a5c:	358d883a 	add	r6,r6,r22
   10a60:	38bfffc4 	addi	r2,r7,-1
   10a64:	3580ec2e 	bgeu	r6,r22,10e18 <__divdf3+0x7fc>
   10a68:	100f883a 	mov	r7,r2
   10a6c:	9826943a 	slli	r19,r19,16
   10a70:	af3fffcc 	andi	fp,r21,65535
   10a74:	30c7c83a 	sub	r3,r6,r3
   10a78:	99e6b03a 	or	r19,r19,r7
   10a7c:	980ed43a 	srli	r7,r19,16
   10a80:	9abfffcc 	andi	r10,r19,65535
   10a84:	5009883a 	mov	r4,r10
   10a88:	e00b883a 	mov	r5,fp
   10a8c:	da400515 	stw	r9,20(sp)
   10a90:	d8c00315 	stw	r3,12(sp)
   10a94:	da800415 	stw	r10,16(sp)
   10a98:	d9c00015 	stw	r7,0(sp)
   10a9c:	00112940 	call	11294 <__mulsi3>
   10aa0:	d9c00017 	ldw	r7,0(sp)
   10aa4:	e00b883a 	mov	r5,fp
   10aa8:	d8800215 	stw	r2,8(sp)
   10aac:	3809883a 	mov	r4,r7
   10ab0:	00112940 	call	11294 <__mulsi3>
   10ab4:	d9c00017 	ldw	r7,0(sp)
   10ab8:	a820d43a 	srli	r16,r21,16
   10abc:	d8800115 	stw	r2,4(sp)
   10ac0:	3809883a 	mov	r4,r7
   10ac4:	800b883a 	mov	r5,r16
   10ac8:	00112940 	call	11294 <__mulsi3>
   10acc:	da800417 	ldw	r10,16(sp)
   10ad0:	8009883a 	mov	r4,r16
   10ad4:	d8800015 	stw	r2,0(sp)
   10ad8:	500b883a 	mov	r5,r10
   10adc:	00112940 	call	11294 <__mulsi3>
   10ae0:	d9800217 	ldw	r6,8(sp)
   10ae4:	d9c00117 	ldw	r7,4(sp)
   10ae8:	da000017 	ldw	r8,0(sp)
   10aec:	3008d43a 	srli	r4,r6,16
   10af0:	11c5883a 	add	r2,r2,r7
   10af4:	d8c00317 	ldw	r3,12(sp)
   10af8:	2089883a 	add	r4,r4,r2
   10afc:	da400517 	ldw	r9,20(sp)
   10b00:	21c0022e 	bgeu	r4,r7,10b0c <__divdf3+0x4f0>
   10b04:	00800074 	movhi	r2,1
   10b08:	4091883a 	add	r8,r8,r2
   10b0c:	200ad43a 	srli	r5,r4,16
   10b10:	2008943a 	slli	r4,r4,16
   10b14:	31bfffcc 	andi	r6,r6,65535
   10b18:	2a0b883a 	add	r5,r5,r8
   10b1c:	218d883a 	add	r6,r4,r6
   10b20:	19409436 	bltu	r3,r5,10d74 <__divdf3+0x758>
   10b24:	19409226 	beq	r3,r5,10d70 <__divdf3+0x754>
   10b28:	898dc83a 	sub	r6,r17,r6
   10b2c:	89a3803a 	cmpltu	r17,r17,r6
   10b30:	1947c83a 	sub	r3,r3,r5
   10b34:	1c47c83a 	sub	r3,r3,r17
   10b38:	9440ffc4 	addi	r17,r18,1023
   10b3c:	b0c0d326 	beq	r22,r3,10e8c <__divdf3+0x870>
   10b40:	1809883a 	mov	r4,r3
   10b44:	b80b883a 	mov	r5,r23
   10b48:	d9800315 	stw	r6,12(sp)
   10b4c:	da400215 	stw	r9,8(sp)
   10b50:	d8c00015 	stw	r3,0(sp)
   10b54:	00111d40 	call	111d4 <__udivsi3>
   10b58:	100b883a 	mov	r5,r2
   10b5c:	a009883a 	mov	r4,r20
   10b60:	d8800115 	stw	r2,4(sp)
   10b64:	00112940 	call	11294 <__mulsi3>
   10b68:	d8c00017 	ldw	r3,0(sp)
   10b6c:	b80b883a 	mov	r5,r23
   10b70:	d8800015 	stw	r2,0(sp)
   10b74:	1809883a 	mov	r4,r3
   10b78:	00112380 	call	11238 <__umodsi3>
   10b7c:	d9800317 	ldw	r6,12(sp)
   10b80:	1006943a 	slli	r3,r2,16
   10b84:	da000017 	ldw	r8,0(sp)
   10b88:	3008d43a 	srli	r4,r6,16
   10b8c:	d9c00117 	ldw	r7,4(sp)
   10b90:	da400217 	ldw	r9,8(sp)
   10b94:	20c6b03a 	or	r3,r4,r3
   10b98:	1a00062e 	bgeu	r3,r8,10bb4 <__divdf3+0x598>
   10b9c:	1d87883a 	add	r3,r3,r22
   10ba0:	38bfffc4 	addi	r2,r7,-1
   10ba4:	1d80c836 	bltu	r3,r22,10ec8 <__divdf3+0x8ac>
   10ba8:	1a00c72e 	bgeu	r3,r8,10ec8 <__divdf3+0x8ac>
   10bac:	39ffff84 	addi	r7,r7,-2
   10bb0:	1d87883a 	add	r3,r3,r22
   10bb4:	1a07c83a 	sub	r3,r3,r8
   10bb8:	1809883a 	mov	r4,r3
   10bbc:	b80b883a 	mov	r5,r23
   10bc0:	d9800415 	stw	r6,16(sp)
   10bc4:	da400315 	stw	r9,12(sp)
   10bc8:	d9c00215 	stw	r7,8(sp)
   10bcc:	d8c00115 	stw	r3,4(sp)
   10bd0:	00111d40 	call	111d4 <__udivsi3>
   10bd4:	100b883a 	mov	r5,r2
   10bd8:	a009883a 	mov	r4,r20
   10bdc:	d8800015 	stw	r2,0(sp)
   10be0:	00112940 	call	11294 <__mulsi3>
   10be4:	d8c00117 	ldw	r3,4(sp)
   10be8:	b80b883a 	mov	r5,r23
   10bec:	102f883a 	mov	r23,r2
   10bf0:	1809883a 	mov	r4,r3
   10bf4:	00112380 	call	11238 <__umodsi3>
   10bf8:	d9800417 	ldw	r6,16(sp)
   10bfc:	1004943a 	slli	r2,r2,16
   10c00:	da000017 	ldw	r8,0(sp)
   10c04:	31bfffcc 	andi	r6,r6,65535
   10c08:	308cb03a 	or	r6,r6,r2
   10c0c:	d9c00217 	ldw	r7,8(sp)
   10c10:	da400317 	ldw	r9,12(sp)
   10c14:	35c0062e 	bgeu	r6,r23,10c30 <__divdf3+0x614>
   10c18:	358d883a 	add	r6,r6,r22
   10c1c:	40bfffc4 	addi	r2,r8,-1
   10c20:	3580a736 	bltu	r6,r22,10ec0 <__divdf3+0x8a4>
   10c24:	35c0a62e 	bgeu	r6,r23,10ec0 <__divdf3+0x8a4>
   10c28:	423fff84 	addi	r8,r8,-2
   10c2c:	358d883a 	add	r6,r6,r22
   10c30:	3828943a 	slli	r20,r7,16
   10c34:	35d5c83a 	sub	r10,r6,r23
   10c38:	e009883a 	mov	r4,fp
   10c3c:	a228b03a 	or	r20,r20,r8
   10c40:	a1ffffcc 	andi	r7,r20,65535
   10c44:	a02ed43a 	srli	r23,r20,16
   10c48:	380b883a 	mov	r5,r7
   10c4c:	da400315 	stw	r9,12(sp)
   10c50:	da800215 	stw	r10,8(sp)
   10c54:	d9c00115 	stw	r7,4(sp)
   10c58:	00112940 	call	11294 <__mulsi3>
   10c5c:	e00b883a 	mov	r5,fp
   10c60:	b809883a 	mov	r4,r23
   10c64:	1039883a 	mov	fp,r2
   10c68:	00112940 	call	11294 <__mulsi3>
   10c6c:	8009883a 	mov	r4,r16
   10c70:	b80b883a 	mov	r5,r23
   10c74:	d8800015 	stw	r2,0(sp)
   10c78:	00112940 	call	11294 <__mulsi3>
   10c7c:	d9c00117 	ldw	r7,4(sp)
   10c80:	8009883a 	mov	r4,r16
   10c84:	1021883a 	mov	r16,r2
   10c88:	380b883a 	mov	r5,r7
   10c8c:	00112940 	call	11294 <__mulsi3>
   10c90:	d9800017 	ldw	r6,0(sp)
   10c94:	e006d43a 	srli	r3,fp,16
   10c98:	da800217 	ldw	r10,8(sp)
   10c9c:	1185883a 	add	r2,r2,r6
   10ca0:	1887883a 	add	r3,r3,r2
   10ca4:	da400317 	ldw	r9,12(sp)
   10ca8:	1980022e 	bgeu	r3,r6,10cb4 <__divdf3+0x698>
   10cac:	00800074 	movhi	r2,1
   10cb0:	80a1883a 	add	r16,r16,r2
   10cb4:	1808d43a 	srli	r4,r3,16
   10cb8:	1806943a 	slli	r3,r3,16
   10cbc:	e73fffcc 	andi	fp,fp,65535
   10cc0:	2409883a 	add	r4,r4,r16
   10cc4:	1f07883a 	add	r3,r3,fp
   10cc8:	51000436 	bltu	r10,r4,10cdc <__divdf3+0x6c0>
   10ccc:	51000226 	beq	r10,r4,10cd8 <__divdf3+0x6bc>
   10cd0:	a5000054 	ori	r20,r20,1
   10cd4:	003eec06 	br	10888 <__divdf3+0x26c>
   10cd8:	183eeb26 	beq	r3,zero,10888 <__divdf3+0x26c>
   10cdc:	b28d883a 	add	r6,r22,r10
   10ce0:	a0bfffc4 	addi	r2,r20,-1
   10ce4:	35806536 	bltu	r6,r22,10e7c <__divdf3+0x860>
   10ce8:	31008036 	bltu	r6,r4,10eec <__divdf3+0x8d0>
   10cec:	31009426 	beq	r6,r4,10f40 <__divdf3+0x924>
   10cf0:	1029883a 	mov	r20,r2
   10cf4:	003ff606 	br	10cd0 <__divdf3+0x6b4>
   10cf8:	053fffc4 	movi	r20,-1
   10cfc:	01400044 	movi	r5,1
   10d00:	2c4bc83a 	sub	r5,r5,r17
   10d04:	28800e48 	cmpgei	r2,r5,57
   10d08:	103e931e 	bne	r2,zero,10758 <__divdf3+0x13c>
   10d0c:	28800808 	cmpgei	r2,r5,32
   10d10:	1000491e 	bne	r2,zero,10e38 <__divdf3+0x81c>
   10d14:	92010784 	addi	r8,r18,1054
   10d18:	9a04983a 	sll	r2,r19,r8
   10d1c:	a146d83a 	srl	r3,r20,r5
   10d20:	a210983a 	sll	r8,r20,r8
   10d24:	994ad83a 	srl	r5,r19,r5
   10d28:	10e8b03a 	or	r20,r2,r3
   10d2c:	4010c03a 	cmpne	r8,r8,zero
   10d30:	a228b03a 	or	r20,r20,r8
   10d34:	a08001cc 	andi	r2,r20,7
   10d38:	10000726 	beq	r2,zero,10d58 <__divdf3+0x73c>
   10d3c:	a08003cc 	andi	r2,r20,15
   10d40:	10800120 	cmpeqi	r2,r2,4
   10d44:	1000041e 	bne	r2,zero,10d58 <__divdf3+0x73c>
   10d48:	a0800104 	addi	r2,r20,4
   10d4c:	1529803a 	cmpltu	r20,r2,r20
   10d50:	2d0b883a 	add	r5,r5,r20
   10d54:	1029883a 	mov	r20,r2
   10d58:	2880202c 	andhi	r2,r5,128
   10d5c:	10006f26 	beq	r2,zero,10f1c <__divdf3+0x900>
   10d60:	00c00044 	movi	r3,1
   10d64:	000b883a 	mov	r5,zero
   10d68:	0029883a 	mov	r20,zero
   10d6c:	003e7d06 	br	10764 <__divdf3+0x148>
   10d70:	89bf6d2e 	bgeu	r17,r6,10b28 <__divdf3+0x50c>
   10d74:	8d63883a 	add	r17,r17,r21
   10d78:	8d45803a 	cmpltu	r2,r17,r21
   10d7c:	1585883a 	add	r2,r2,r22
   10d80:	1887883a 	add	r3,r3,r2
   10d84:	98bfffc4 	addi	r2,r19,-1
   10d88:	b0c0202e 	bgeu	r22,r3,10e0c <__divdf3+0x7f0>
   10d8c:	19405136 	bltu	r3,r5,10ed4 <__divdf3+0x8b8>
   10d90:	28c04f26 	beq	r5,r3,10ed0 <__divdf3+0x8b4>
   10d94:	1027883a 	mov	r19,r2
   10d98:	003f6306 	br	10b28 <__divdf3+0x50c>
   10d9c:	a2befc36 	bltu	r20,r10,10990 <__divdf3+0x374>
   10da0:	983897fa 	slli	fp,r19,31
   10da4:	a004d07a 	srli	r2,r20,1
   10da8:	9820d07a 	srli	r16,r19,1
   10dac:	a02297fa 	slli	r17,r20,31
   10db0:	e0b8b03a 	or	fp,fp,r2
   10db4:	003efa06 	br	109a0 <__divdf3+0x384>
   10db8:	001108c0 	call	1108c <__clzsi2>
   10dbc:	11000544 	addi	r4,r2,21
   10dc0:	20c00748 	cmpgei	r3,r4,29
   10dc4:	100b883a 	mov	r5,r2
   10dc8:	10800804 	addi	r2,r2,32
   10dcc:	183e8226 	beq	r3,zero,107d8 <__divdf3+0x1bc>
   10dd0:	297ffe04 	addi	r5,r5,-8
   10dd4:	a166983a 	sll	r19,r20,r5
   10dd8:	0029883a 	mov	r20,zero
   10ddc:	003e8506 	br	107f4 <__divdf3+0x1d8>
   10de0:	e009883a 	mov	r4,fp
   10de4:	001108c0 	call	1108c <__clzsi2>
   10de8:	11400544 	addi	r5,r2,21
   10dec:	29000748 	cmpgei	r4,r5,29
   10df0:	1007883a 	mov	r3,r2
   10df4:	10800804 	addi	r2,r2,32
   10df8:	203e9026 	beq	r4,zero,1083c <__divdf3+0x220>
   10dfc:	18fffe04 	addi	r3,r3,-8
   10e00:	e0ec983a 	sll	r22,fp,r3
   10e04:	0015883a 	mov	r10,zero
   10e08:	003e9306 	br	10858 <__divdf3+0x23c>
   10e0c:	b0ffe11e 	bne	r22,r3,10d94 <__divdf3+0x778>
   10e10:	8d7fe036 	bltu	r17,r21,10d94 <__divdf3+0x778>
   10e14:	003fdd06 	br	10d8c <__divdf3+0x770>
   10e18:	30ff132e 	bgeu	r6,r3,10a68 <__divdf3+0x44c>
   10e1c:	39ffff84 	addi	r7,r7,-2
   10e20:	358d883a 	add	r6,r6,r22
   10e24:	003f1106 	br	10a6c <__divdf3+0x450>
   10e28:	243ef72e 	bgeu	r4,r16,10a08 <__divdf3+0x3ec>
   10e2c:	9cffff84 	addi	r19,r19,-2
   10e30:	2589883a 	add	r4,r4,r22
   10e34:	003ef506 	br	10a0c <__divdf3+0x3f0>
   10e38:	00fff844 	movi	r3,-31
   10e3c:	1c47c83a 	sub	r3,r3,r17
   10e40:	29400820 	cmpeqi	r5,r5,32
   10e44:	98c6d83a 	srl	r3,r19,r3
   10e48:	2800031e 	bne	r5,zero,10e58 <__divdf3+0x83c>
   10e4c:	91410f84 	addi	r5,r18,1086
   10e50:	994a983a 	sll	r5,r19,r5
   10e54:	a168b03a 	or	r20,r20,r5
   10e58:	a028c03a 	cmpne	r20,r20,zero
   10e5c:	a0e8b03a 	or	r20,r20,r3
   10e60:	a4c001cc 	andi	r19,r20,7
   10e64:	9800291e 	bne	r19,zero,10f0c <__divdf3+0x8f0>
   10e68:	000b883a 	mov	r5,zero
   10e6c:	a028d0fa 	srli	r20,r20,3
   10e70:	0007883a 	mov	r3,zero
   10e74:	a4e8b03a 	or	r20,r20,r19
   10e78:	003e3a06 	br	10764 <__divdf3+0x148>
   10e7c:	1029883a 	mov	r20,r2
   10e80:	313f931e 	bne	r6,r4,10cd0 <__divdf3+0x6b4>
   10e84:	1d7f921e 	bne	r3,r21,10cd0 <__divdf3+0x6b4>
   10e88:	003e7f06 	br	10888 <__divdf3+0x26c>
   10e8c:	047f9a0e 	bge	zero,r17,10cf8 <__divdf3+0x6dc>
   10e90:	0009883a 	mov	r4,zero
   10e94:	05000044 	movi	r20,1
   10e98:	9d27883a 	add	r19,r19,r20
   10e9c:	003e7e06 	br	10898 <__divdf3+0x27c>
   10ea0:	a08003cc 	andi	r2,r20,15
   10ea4:	10800118 	cmpnei	r2,r2,4
   10ea8:	103e7a26 	beq	r2,zero,10894 <__divdf3+0x278>
   10eac:	a1000104 	addi	r4,r20,4
   10eb0:	00bffec4 	movi	r2,-5
   10eb4:	2008d0fa 	srli	r4,r4,3
   10eb8:	1529803a 	cmpltu	r20,r2,r20
   10ebc:	003ff606 	br	10e98 <__divdf3+0x87c>
   10ec0:	1011883a 	mov	r8,r2
   10ec4:	003f5a06 	br	10c30 <__divdf3+0x614>
   10ec8:	100f883a 	mov	r7,r2
   10ecc:	003f3906 	br	10bb4 <__divdf3+0x598>
   10ed0:	89bfb02e 	bgeu	r17,r6,10d94 <__divdf3+0x778>
   10ed4:	8d63883a 	add	r17,r17,r21
   10ed8:	8d45803a 	cmpltu	r2,r17,r21
   10edc:	1585883a 	add	r2,r2,r22
   10ee0:	9cffff84 	addi	r19,r19,-2
   10ee4:	1887883a 	add	r3,r3,r2
   10ee8:	003f0f06 	br	10b28 <__divdf3+0x50c>
   10eec:	ad45883a 	add	r2,r21,r21
   10ef0:	156b803a 	cmpltu	r21,r2,r21
   10ef4:	adad883a 	add	r22,r21,r22
   10ef8:	358d883a 	add	r6,r6,r22
   10efc:	a53fff84 	addi	r20,r20,-2
   10f00:	102b883a 	mov	r21,r2
   10f04:	313fdf26 	beq	r6,r4,10e84 <__divdf3+0x868>
   10f08:	003f7106 	br	10cd0 <__divdf3+0x6b4>
   10f0c:	a08003cc 	andi	r2,r20,15
   10f10:	10800118 	cmpnei	r2,r2,4
   10f14:	000b883a 	mov	r5,zero
   10f18:	103f8b1e 	bne	r2,zero,10d48 <__divdf3+0x72c>
   10f1c:	2804927a 	slli	r2,r5,9
   10f20:	2826977a 	slli	r19,r5,29
   10f24:	100ad33a 	srli	r5,r2,12
   10f28:	003fd006 	br	10e6c <__divdf3+0x850>
   10f2c:	00800434 	movhi	r2,16
   10f30:	99400234 	orhi	r5,r19,8
   10f34:	10bfffc4 	addi	r2,r2,-1
   10f38:	288a703a 	and	r5,r5,r2
   10f3c:	003e7f06 	br	1093c <__divdf3+0x320>
   10f40:	a8ffea36 	bltu	r21,r3,10eec <__divdf3+0x8d0>
   10f44:	1029883a 	mov	r20,r2
   10f48:	1d7f611e 	bne	r3,r21,10cd0 <__divdf3+0x6b4>
   10f4c:	003e4e06 	br	10888 <__divdf3+0x26c>

00010f50 <__fixdfsi>:
   10f50:	2806d53a 	srli	r3,r5,20
   10f54:	01800434 	movhi	r6,16
   10f58:	31bfffc4 	addi	r6,r6,-1
   10f5c:	18c1ffcc 	andi	r3,r3,2047
   10f60:	19c0ffd0 	cmplti	r7,r3,1023
   10f64:	2810d7fa 	srli	r8,r5,31
   10f68:	298a703a 	and	r5,r5,r6
   10f6c:	3800061e 	bne	r7,zero,10f88 <__fixdfsi+0x38>
   10f70:	18810790 	cmplti	r2,r3,1054
   10f74:	1000061e 	bne	r2,zero,10f90 <__fixdfsi+0x40>
   10f78:	00a00034 	movhi	r2,32768
   10f7c:	10bfffc4 	addi	r2,r2,-1
   10f80:	4085883a 	add	r2,r8,r2
   10f84:	f800283a 	ret
   10f88:	0005883a 	mov	r2,zero
   10f8c:	f800283a 	ret
   10f90:	01810cc4 	movi	r6,1075
   10f94:	30cdc83a 	sub	r6,r6,r3
   10f98:	30800808 	cmpgei	r2,r6,32
   10f9c:	29400434 	orhi	r5,r5,16
   10fa0:	1000071e 	bne	r2,zero,10fc0 <__fixdfsi+0x70>
   10fa4:	18befb44 	addi	r2,r3,-1043
   10fa8:	2884983a 	sll	r2,r5,r2
   10fac:	2188d83a 	srl	r4,r4,r6
   10fb0:	1104b03a 	or	r2,r2,r4
   10fb4:	403ff526 	beq	r8,zero,10f8c <__fixdfsi+0x3c>
   10fb8:	0085c83a 	sub	r2,zero,r2
   10fbc:	f800283a 	ret
   10fc0:	008104c4 	movi	r2,1043
   10fc4:	10c5c83a 	sub	r2,r2,r3
   10fc8:	2884d83a 	srl	r2,r5,r2
   10fcc:	003ff906 	br	10fb4 <__fixdfsi+0x64>

00010fd0 <__floatsidf>:
   10fd0:	defffd04 	addi	sp,sp,-12
   10fd4:	dfc00215 	stw	ra,8(sp)
   10fd8:	dc400115 	stw	r17,4(sp)
   10fdc:	dc000015 	stw	r16,0(sp)
   10fe0:	20001326 	beq	r4,zero,11030 <__floatsidf+0x60>
   10fe4:	2022d7fa 	srli	r17,r4,31
   10fe8:	2021883a 	mov	r16,r4
   10fec:	20002516 	blt	r4,zero,11084 <__floatsidf+0xb4>
   10ff0:	8009883a 	mov	r4,r16
   10ff4:	001108c0 	call	1108c <__clzsi2>
   10ff8:	01410784 	movi	r5,1054
   10ffc:	288bc83a 	sub	r5,r5,r2
   11000:	10c002c8 	cmpgei	r3,r2,11
   11004:	2941ffcc 	andi	r5,r5,2047
   11008:	1800171e 	bne	r3,zero,11068 <__floatsidf+0x98>
   1100c:	00c002c4 	movi	r3,11
   11010:	1887c83a 	sub	r3,r3,r2
   11014:	80c6d83a 	srl	r3,r16,r3
   11018:	01000434 	movhi	r4,16
   1101c:	10800544 	addi	r2,r2,21
   11020:	213fffc4 	addi	r4,r4,-1
   11024:	8084983a 	sll	r2,r16,r2
   11028:	1906703a 	and	r3,r3,r4
   1102c:	00000406 	br	11040 <__floatsidf+0x70>
   11030:	0023883a 	mov	r17,zero
   11034:	000b883a 	mov	r5,zero
   11038:	0007883a 	mov	r3,zero
   1103c:	0005883a 	mov	r2,zero
   11040:	280a953a 	slli	r5,r5,20
   11044:	8c403fcc 	andi	r17,r17,255
   11048:	882297fa 	slli	r17,r17,31
   1104c:	28c6b03a 	or	r3,r5,r3
   11050:	1c46b03a 	or	r3,r3,r17
   11054:	dfc00217 	ldw	ra,8(sp)
   11058:	dc400117 	ldw	r17,4(sp)
   1105c:	dc000017 	ldw	r16,0(sp)
   11060:	dec00304 	addi	sp,sp,12
   11064:	f800283a 	ret
   11068:	10bffd44 	addi	r2,r2,-11
   1106c:	8086983a 	sll	r3,r16,r2
   11070:	00800434 	movhi	r2,16
   11074:	10bfffc4 	addi	r2,r2,-1
   11078:	1886703a 	and	r3,r3,r2
   1107c:	0005883a 	mov	r2,zero
   11080:	003fef06 	br	11040 <__floatsidf+0x70>
   11084:	0121c83a 	sub	r16,zero,r4
   11088:	003fd906 	br	10ff0 <__floatsidf+0x20>

0001108c <__clzsi2>:
   1108c:	00bfffd4 	movui	r2,65535
   11090:	11000436 	bltu	r2,r4,110a4 <__clzsi2+0x18>
   11094:	20804030 	cmpltui	r2,r4,256
   11098:	10000e26 	beq	r2,zero,110d4 <__clzsi2+0x48>
   1109c:	01400804 	movi	r5,32
   110a0:	00000406 	br	110b4 <__clzsi2+0x28>
   110a4:	00804034 	movhi	r2,256
   110a8:	20800736 	bltu	r4,r2,110c8 <__clzsi2+0x3c>
   110ac:	2008d63a 	srli	r4,r4,24
   110b0:	01400204 	movi	r5,8
   110b4:	00c00074 	movhi	r3,1
   110b8:	20c7883a 	add	r3,r4,r3
   110bc:	1888e103 	ldbu	r2,9092(r3)
   110c0:	2885c83a 	sub	r2,r5,r2
   110c4:	f800283a 	ret
   110c8:	2008d43a 	srli	r4,r4,16
   110cc:	01400404 	movi	r5,16
   110d0:	003ff806 	br	110b4 <__clzsi2+0x28>
   110d4:	2008d23a 	srli	r4,r4,8
   110d8:	01400604 	movi	r5,24
   110dc:	003ff506 	br	110b4 <__clzsi2+0x28>

000110e0 <__divsi3>:
   110e0:	20001a16 	blt	r4,zero,1114c <__divsi3+0x6c>
   110e4:	000f883a 	mov	r7,zero
   110e8:	2800020e 	bge	r5,zero,110f4 <__divsi3+0x14>
   110ec:	014bc83a 	sub	r5,zero,r5
   110f0:	39c0005c 	xori	r7,r7,1
   110f4:	200d883a 	mov	r6,r4
   110f8:	00c00044 	movi	r3,1
   110fc:	2900092e 	bgeu	r5,r4,11124 <__divsi3+0x44>
   11100:	00800804 	movi	r2,32
   11104:	00c00044 	movi	r3,1
   11108:	00000106 	br	11110 <__divsi3+0x30>
   1110c:	10001226 	beq	r2,zero,11158 <__divsi3+0x78>
   11110:	294b883a 	add	r5,r5,r5
   11114:	10bfffc4 	addi	r2,r2,-1
   11118:	18c7883a 	add	r3,r3,r3
   1111c:	293ffb36 	bltu	r5,r4,1110c <__divsi3+0x2c>
   11120:	18000d26 	beq	r3,zero,11158 <__divsi3+0x78>
   11124:	0005883a 	mov	r2,zero
   11128:	31400236 	bltu	r6,r5,11134 <__divsi3+0x54>
   1112c:	314dc83a 	sub	r6,r6,r5
   11130:	10c4b03a 	or	r2,r2,r3
   11134:	1806d07a 	srli	r3,r3,1
   11138:	280ad07a 	srli	r5,r5,1
   1113c:	183ffa1e 	bne	r3,zero,11128 <__divsi3+0x48>
   11140:	38000126 	beq	r7,zero,11148 <__divsi3+0x68>
   11144:	0085c83a 	sub	r2,zero,r2
   11148:	f800283a 	ret
   1114c:	0109c83a 	sub	r4,zero,r4
   11150:	01c00044 	movi	r7,1
   11154:	003fe406 	br	110e8 <__divsi3+0x8>
   11158:	0005883a 	mov	r2,zero
   1115c:	003ff806 	br	11140 <__divsi3+0x60>

00011160 <__modsi3>:
   11160:	20001916 	blt	r4,zero,111c8 <__modsi3+0x68>
   11164:	000f883a 	mov	r7,zero
   11168:	2005883a 	mov	r2,r4
   1116c:	2800010e 	bge	r5,zero,11174 <__modsi3+0x14>
   11170:	014bc83a 	sub	r5,zero,r5
   11174:	00c00044 	movi	r3,1
   11178:	2900092e 	bgeu	r5,r4,111a0 <__modsi3+0x40>
   1117c:	01800804 	movi	r6,32
   11180:	00c00044 	movi	r3,1
   11184:	00000106 	br	1118c <__modsi3+0x2c>
   11188:	30000d26 	beq	r6,zero,111c0 <__modsi3+0x60>
   1118c:	294b883a 	add	r5,r5,r5
   11190:	31bfffc4 	addi	r6,r6,-1
   11194:	18c7883a 	add	r3,r3,r3
   11198:	293ffb36 	bltu	r5,r4,11188 <__modsi3+0x28>
   1119c:	18000826 	beq	r3,zero,111c0 <__modsi3+0x60>
   111a0:	1806d07a 	srli	r3,r3,1
   111a4:	11400136 	bltu	r2,r5,111ac <__modsi3+0x4c>
   111a8:	1145c83a 	sub	r2,r2,r5
   111ac:	280ad07a 	srli	r5,r5,1
   111b0:	183ffb1e 	bne	r3,zero,111a0 <__modsi3+0x40>
   111b4:	38000126 	beq	r7,zero,111bc <__modsi3+0x5c>
   111b8:	0085c83a 	sub	r2,zero,r2
   111bc:	f800283a 	ret
   111c0:	2005883a 	mov	r2,r4
   111c4:	003ffb06 	br	111b4 <__modsi3+0x54>
   111c8:	0109c83a 	sub	r4,zero,r4
   111cc:	01c00044 	movi	r7,1
   111d0:	003fe506 	br	11168 <__modsi3+0x8>

000111d4 <__udivsi3>:
   111d4:	200d883a 	mov	r6,r4
   111d8:	2900152e 	bgeu	r5,r4,11230 <__udivsi3+0x5c>
   111dc:	28001416 	blt	r5,zero,11230 <__udivsi3+0x5c>
   111e0:	00800804 	movi	r2,32
   111e4:	00c00044 	movi	r3,1
   111e8:	00000206 	br	111f4 <__udivsi3+0x20>
   111ec:	10000e26 	beq	r2,zero,11228 <__udivsi3+0x54>
   111f0:	28000516 	blt	r5,zero,11208 <__udivsi3+0x34>
   111f4:	294b883a 	add	r5,r5,r5
   111f8:	10bfffc4 	addi	r2,r2,-1
   111fc:	18c7883a 	add	r3,r3,r3
   11200:	293ffa36 	bltu	r5,r4,111ec <__udivsi3+0x18>
   11204:	18000826 	beq	r3,zero,11228 <__udivsi3+0x54>
   11208:	0005883a 	mov	r2,zero
   1120c:	31400236 	bltu	r6,r5,11218 <__udivsi3+0x44>
   11210:	314dc83a 	sub	r6,r6,r5
   11214:	10c4b03a 	or	r2,r2,r3
   11218:	1806d07a 	srli	r3,r3,1
   1121c:	280ad07a 	srli	r5,r5,1
   11220:	183ffa1e 	bne	r3,zero,1120c <__udivsi3+0x38>
   11224:	f800283a 	ret
   11228:	0005883a 	mov	r2,zero
   1122c:	f800283a 	ret
   11230:	00c00044 	movi	r3,1
   11234:	003ff406 	br	11208 <__udivsi3+0x34>

00011238 <__umodsi3>:
   11238:	2005883a 	mov	r2,r4
   1123c:	2900132e 	bgeu	r5,r4,1128c <__umodsi3+0x54>
   11240:	28001216 	blt	r5,zero,1128c <__umodsi3+0x54>
   11244:	01800804 	movi	r6,32
   11248:	00c00044 	movi	r3,1
   1124c:	00000206 	br	11258 <__umodsi3+0x20>
   11250:	30000c26 	beq	r6,zero,11284 <__umodsi3+0x4c>
   11254:	28000516 	blt	r5,zero,1126c <__umodsi3+0x34>
   11258:	294b883a 	add	r5,r5,r5
   1125c:	31bfffc4 	addi	r6,r6,-1
   11260:	18c7883a 	add	r3,r3,r3
   11264:	293ffa36 	bltu	r5,r4,11250 <__umodsi3+0x18>
   11268:	18000626 	beq	r3,zero,11284 <__umodsi3+0x4c>
   1126c:	1806d07a 	srli	r3,r3,1
   11270:	11400136 	bltu	r2,r5,11278 <__umodsi3+0x40>
   11274:	1145c83a 	sub	r2,r2,r5
   11278:	280ad07a 	srli	r5,r5,1
   1127c:	183ffb1e 	bne	r3,zero,1126c <__umodsi3+0x34>
   11280:	f800283a 	ret
   11284:	2005883a 	mov	r2,r4
   11288:	f800283a 	ret
   1128c:	00c00044 	movi	r3,1
   11290:	003ff606 	br	1126c <__umodsi3+0x34>

00011294 <__mulsi3>:
   11294:	0005883a 	mov	r2,zero
   11298:	20000726 	beq	r4,zero,112b8 <__mulsi3+0x24>
   1129c:	20c0004c 	andi	r3,r4,1
   112a0:	2008d07a 	srli	r4,r4,1
   112a4:	18000126 	beq	r3,zero,112ac <__mulsi3+0x18>
   112a8:	1145883a 	add	r2,r2,r5
   112ac:	294b883a 	add	r5,r5,r5
   112b0:	203ffa1e 	bne	r4,zero,1129c <__mulsi3+0x8>
   112b4:	f800283a 	ret
   112b8:	f800283a 	ret

000112bc <calloc>:
   112bc:	00800074 	movhi	r2,1
   112c0:	280d883a 	mov	r6,r5
   112c4:	200b883a 	mov	r5,r4
   112c8:	11097f17 	ldw	r4,9724(r2)
   112cc:	00113181 	jmpi	11318 <_calloc_r>

000112d0 <memcpy>:
   112d0:	2005883a 	mov	r2,r4
   112d4:	0007883a 	mov	r3,zero
   112d8:	30c0011e 	bne	r6,r3,112e0 <memcpy+0x10>
   112dc:	f800283a 	ret
   112e0:	28cf883a 	add	r7,r5,r3
   112e4:	39c00003 	ldbu	r7,0(r7)
   112e8:	10c9883a 	add	r4,r2,r3
   112ec:	18c00044 	addi	r3,r3,1
   112f0:	21c00005 	stb	r7,0(r4)
   112f4:	003ff806 	br	112d8 <memcpy+0x8>

000112f8 <memset>:
   112f8:	2005883a 	mov	r2,r4
   112fc:	218d883a 	add	r6,r4,r6
   11300:	2007883a 	mov	r3,r4
   11304:	1980011e 	bne	r3,r6,1130c <memset+0x14>
   11308:	f800283a 	ret
   1130c:	18c00044 	addi	r3,r3,1
   11310:	197fffc5 	stb	r5,-1(r3)
   11314:	003ffb06 	br	11304 <memset+0xc>

00011318 <_calloc_r>:
   11318:	defffd04 	addi	sp,sp,-12
   1131c:	dc400115 	stw	r17,4(sp)
   11320:	2023883a 	mov	r17,r4
   11324:	2809883a 	mov	r4,r5
   11328:	300b883a 	mov	r5,r6
   1132c:	dfc00215 	stw	ra,8(sp)
   11330:	dc000015 	stw	r16,0(sp)
   11334:	00112940 	call	11294 <__mulsi3>
   11338:	8809883a 	mov	r4,r17
   1133c:	100b883a 	mov	r5,r2
   11340:	1021883a 	mov	r16,r2
   11344:	00113780 	call	11378 <_malloc_r>
   11348:	1009883a 	mov	r4,r2
   1134c:	10000426 	beq	r2,zero,11360 <_calloc_r+0x48>
   11350:	800d883a 	mov	r6,r16
   11354:	000b883a 	mov	r5,zero
   11358:	00112f80 	call	112f8 <memset>
   1135c:	1009883a 	mov	r4,r2
   11360:	2005883a 	mov	r2,r4
   11364:	dfc00217 	ldw	ra,8(sp)
   11368:	dc400117 	ldw	r17,4(sp)
   1136c:	dc000017 	ldw	r16,0(sp)
   11370:	dec00304 	addi	sp,sp,12
   11374:	f800283a 	ret

00011378 <_malloc_r>:
   11378:	defffc04 	addi	sp,sp,-16
   1137c:	00bfff04 	movi	r2,-4
   11380:	dc400115 	stw	r17,4(sp)
   11384:	2c4000c4 	addi	r17,r5,3
   11388:	88a2703a 	and	r17,r17,r2
   1138c:	8c400204 	addi	r17,r17,8
   11390:	dc800215 	stw	r18,8(sp)
   11394:	dfc00315 	stw	ra,12(sp)
   11398:	dc000015 	stw	r16,0(sp)
   1139c:	88800328 	cmpgeui	r2,r17,12
   113a0:	2025883a 	mov	r18,r4
   113a4:	10001b1e 	bne	r2,zero,11414 <_malloc_r+0x9c>
   113a8:	04400304 	movi	r17,12
   113ac:	89401a36 	bltu	r17,r5,11418 <_malloc_r+0xa0>
   113b0:	9009883a 	mov	r4,r18
   113b4:	0011e180 	call	11e18 <__malloc_lock>
   113b8:	00800074 	movhi	r2,1
   113bc:	10c9f317 	ldw	r3,10188(r2)
   113c0:	1821883a 	mov	r16,r3
   113c4:	80001d1e 	bne	r16,zero,1143c <_malloc_r+0xc4>
   113c8:	00800074 	movhi	r2,1
   113cc:	1089f217 	ldw	r2,10184(r2)
   113d0:	1000061e 	bne	r2,zero,113ec <_malloc_r+0x74>
   113d4:	00800074 	movhi	r2,1
   113d8:	1149f217 	ldw	r5,10184(r2)
   113dc:	9009883a 	mov	r4,r18
   113e0:	00115600 	call	11560 <_sbrk_r>
   113e4:	00c00074 	movhi	r3,1
   113e8:	1889f215 	stw	r2,10184(r3)
   113ec:	880b883a 	mov	r5,r17
   113f0:	9009883a 	mov	r4,r18
   113f4:	00115600 	call	11560 <_sbrk_r>
   113f8:	10ffffd8 	cmpnei	r3,r2,-1
   113fc:	18002d1e 	bne	r3,zero,114b4 <_malloc_r+0x13c>
   11400:	00800304 	movi	r2,12
   11404:	90800015 	stw	r2,0(r18)
   11408:	9009883a 	mov	r4,r18
   1140c:	0011e1c0 	call	11e1c <__malloc_unlock>
   11410:	00000306 	br	11420 <_malloc_r+0xa8>
   11414:	883fe50e 	bge	r17,zero,113ac <_malloc_r+0x34>
   11418:	00800304 	movi	r2,12
   1141c:	90800015 	stw	r2,0(r18)
   11420:	0005883a 	mov	r2,zero
   11424:	dfc00317 	ldw	ra,12(sp)
   11428:	dc800217 	ldw	r18,8(sp)
   1142c:	dc400117 	ldw	r17,4(sp)
   11430:	dc000017 	ldw	r16,0(sp)
   11434:	dec00404 	addi	sp,sp,16
   11438:	f800283a 	ret
   1143c:	80800017 	ldw	r2,0(r16)
   11440:	1445c83a 	sub	r2,r2,r17
   11444:	10001816 	blt	r2,zero,114a8 <_malloc_r+0x130>
   11448:	11000330 	cmpltui	r4,r2,12
   1144c:	2000041e 	bne	r4,zero,11460 <_malloc_r+0xe8>
   11450:	80800015 	stw	r2,0(r16)
   11454:	80a1883a 	add	r16,r16,r2
   11458:	84400015 	stw	r17,0(r16)
   1145c:	00000406 	br	11470 <_malloc_r+0xf8>
   11460:	80800117 	ldw	r2,4(r16)
   11464:	1c000e1e 	bne	r3,r16,114a0 <_malloc_r+0x128>
   11468:	00c00074 	movhi	r3,1
   1146c:	1889f315 	stw	r2,10188(r3)
   11470:	9009883a 	mov	r4,r18
   11474:	0011e1c0 	call	11e1c <__malloc_unlock>
   11478:	013ffe04 	movi	r4,-8
   1147c:	808002c4 	addi	r2,r16,11
   11480:	80c00104 	addi	r3,r16,4
   11484:	1104703a 	and	r2,r2,r4
   11488:	10c9c83a 	sub	r4,r2,r3
   1148c:	10ffe526 	beq	r2,r3,11424 <_malloc_r+0xac>
   11490:	8121883a 	add	r16,r16,r4
   11494:	1887c83a 	sub	r3,r3,r2
   11498:	80c00015 	stw	r3,0(r16)
   1149c:	003fe106 	br	11424 <_malloc_r+0xac>
   114a0:	18800115 	stw	r2,4(r3)
   114a4:	003ff206 	br	11470 <_malloc_r+0xf8>
   114a8:	8007883a 	mov	r3,r16
   114ac:	84000117 	ldw	r16,4(r16)
   114b0:	003fc406 	br	113c4 <_malloc_r+0x4c>
   114b4:	140000c4 	addi	r16,r2,3
   114b8:	00ffff04 	movi	r3,-4
   114bc:	80e0703a 	and	r16,r16,r3
   114c0:	143fe526 	beq	r2,r16,11458 <_malloc_r+0xe0>
   114c4:	808bc83a 	sub	r5,r16,r2
   114c8:	9009883a 	mov	r4,r18
   114cc:	00115600 	call	11560 <_sbrk_r>
   114d0:	10bfffe0 	cmpeqi	r2,r2,-1
   114d4:	103fe026 	beq	r2,zero,11458 <_malloc_r+0xe0>
   114d8:	003fc906 	br	11400 <_malloc_r+0x88>

000114dc <_printf_r>:
   114dc:	defffd04 	addi	sp,sp,-12
   114e0:	dfc00015 	stw	ra,0(sp)
   114e4:	d9800115 	stw	r6,4(sp)
   114e8:	d9c00215 	stw	r7,8(sp)
   114ec:	21800217 	ldw	r6,8(r4)
   114f0:	00c00074 	movhi	r3,1
   114f4:	18c6d504 	addi	r3,r3,6996
   114f8:	30c00115 	stw	r3,4(r6)
   114fc:	280d883a 	mov	r6,r5
   11500:	21400217 	ldw	r5,8(r4)
   11504:	d9c00104 	addi	r7,sp,4
   11508:	00116140 	call	11614 <___vfprintf_internal_r>
   1150c:	dfc00017 	ldw	ra,0(sp)
   11510:	dec00304 	addi	sp,sp,12
   11514:	f800283a 	ret

00011518 <printf>:
   11518:	defffc04 	addi	sp,sp,-16
   1151c:	dfc00015 	stw	ra,0(sp)
   11520:	d9400115 	stw	r5,4(sp)
   11524:	d9800215 	stw	r6,8(sp)
   11528:	d9c00315 	stw	r7,12(sp)
   1152c:	00800074 	movhi	r2,1
   11530:	10c97f17 	ldw	r3,9724(r2)
   11534:	00800074 	movhi	r2,1
   11538:	1086d504 	addi	r2,r2,6996
   1153c:	19400217 	ldw	r5,8(r3)
   11540:	d9800104 	addi	r6,sp,4
   11544:	28800115 	stw	r2,4(r5)
   11548:	200b883a 	mov	r5,r4
   1154c:	19000217 	ldw	r4,8(r3)
   11550:	0011b3c0 	call	11b3c <__vfprintf_internal>
   11554:	dfc00017 	ldw	ra,0(sp)
   11558:	dec00404 	addi	sp,sp,16
   1155c:	f800283a 	ret

00011560 <_sbrk_r>:
   11560:	defffe04 	addi	sp,sp,-8
   11564:	dc000015 	stw	r16,0(sp)
   11568:	00800074 	movhi	r2,1
   1156c:	2021883a 	mov	r16,r4
   11570:	2809883a 	mov	r4,r5
   11574:	dfc00115 	stw	ra,4(sp)
   11578:	1009f415 	stw	zero,10192(r2)
   1157c:	0011e580 	call	11e58 <sbrk>
   11580:	10ffffd8 	cmpnei	r3,r2,-1
   11584:	1800041e 	bne	r3,zero,11598 <_sbrk_r+0x38>
   11588:	00c00074 	movhi	r3,1
   1158c:	18c9f417 	ldw	r3,10192(r3)
   11590:	18000126 	beq	r3,zero,11598 <_sbrk_r+0x38>
   11594:	80c00015 	stw	r3,0(r16)
   11598:	dfc00117 	ldw	ra,4(sp)
   1159c:	dc000017 	ldw	r16,0(sp)
   115a0:	dec00204 	addi	sp,sp,8
   115a4:	f800283a 	ret

000115a8 <print_repeat>:
   115a8:	defffb04 	addi	sp,sp,-20
   115ac:	dc800315 	stw	r18,12(sp)
   115b0:	dc400215 	stw	r17,8(sp)
   115b4:	dc000115 	stw	r16,4(sp)
   115b8:	dfc00415 	stw	ra,16(sp)
   115bc:	2025883a 	mov	r18,r4
   115c0:	2823883a 	mov	r17,r5
   115c4:	d9800005 	stb	r6,0(sp)
   115c8:	3821883a 	mov	r16,r7
   115cc:	04000716 	blt	zero,r16,115ec <print_repeat+0x44>
   115d0:	0005883a 	mov	r2,zero
   115d4:	dfc00417 	ldw	ra,16(sp)
   115d8:	dc800317 	ldw	r18,12(sp)
   115dc:	dc400217 	ldw	r17,8(sp)
   115e0:	dc000117 	ldw	r16,4(sp)
   115e4:	dec00504 	addi	sp,sp,20
   115e8:	f800283a 	ret
   115ec:	88800117 	ldw	r2,4(r17)
   115f0:	01c00044 	movi	r7,1
   115f4:	d80d883a 	mov	r6,sp
   115f8:	880b883a 	mov	r5,r17
   115fc:	9009883a 	mov	r4,r18
   11600:	103ee83a 	callr	r2
   11604:	843fffc4 	addi	r16,r16,-1
   11608:	103ff026 	beq	r2,zero,115cc <print_repeat+0x24>
   1160c:	00bfffc4 	movi	r2,-1
   11610:	003ff006 	br	115d4 <print_repeat+0x2c>

00011614 <___vfprintf_internal_r>:
   11614:	deffe604 	addi	sp,sp,-104
   11618:	ddc01715 	stw	r23,92(sp)
   1161c:	dd801615 	stw	r22,88(sp)
   11620:	dd001415 	stw	r20,80(sp)
   11624:	dcc01315 	stw	r19,76(sp)
   11628:	dc801215 	stw	r18,72(sp)
   1162c:	dc401115 	stw	r17,68(sp)
   11630:	dc001015 	stw	r16,64(sp)
   11634:	dfc01915 	stw	ra,100(sp)
   11638:	df001815 	stw	fp,96(sp)
   1163c:	dd401515 	stw	r21,84(sp)
   11640:	2021883a 	mov	r16,r4
   11644:	282f883a 	mov	r23,r5
   11648:	d9800515 	stw	r6,20(sp)
   1164c:	3811883a 	mov	r8,r7
   11650:	002d883a 	mov	r22,zero
   11654:	d8000215 	stw	zero,8(sp)
   11658:	0027883a 	mov	r19,zero
   1165c:	0029883a 	mov	r20,zero
   11660:	0025883a 	mov	r18,zero
   11664:	0023883a 	mov	r17,zero
   11668:	d8000115 	stw	zero,4(sp)
   1166c:	d8000015 	stw	zero,0(sp)
   11670:	0005883a 	mov	r2,zero
   11674:	00000206 	br	11680 <___vfprintf_internal_r+0x6c>
   11678:	114000e0 	cmpeqi	r5,r2,3
   1167c:	2800411e 	bne	r5,zero,11784 <___vfprintf_internal_r+0x170>
   11680:	d8c00517 	ldw	r3,20(sp)
   11684:	19000003 	ldbu	r4,0(r3)
   11688:	18c00044 	addi	r3,r3,1
   1168c:	d8c00515 	stw	r3,20(sp)
   11690:	21803fcc 	andi	r6,r4,255
   11694:	3180201c 	xori	r6,r6,128
   11698:	31bfe004 	addi	r6,r6,-128
   1169c:	30001626 	beq	r6,zero,116f8 <___vfprintf_internal_r+0xe4>
   116a0:	114000a0 	cmpeqi	r5,r2,2
   116a4:	2800251e 	bne	r5,zero,1173c <___vfprintf_internal_r+0x128>
   116a8:	114000c8 	cmpgei	r5,r2,3
   116ac:	283ff21e 	bne	r5,zero,11678 <___vfprintf_internal_r+0x64>
   116b0:	10000426 	beq	r2,zero,116c4 <___vfprintf_internal_r+0xb0>
   116b4:	10800060 	cmpeqi	r2,r2,1
   116b8:	10001c1e 	bne	r2,zero,1172c <___vfprintf_internal_r+0x118>
   116bc:	00800084 	movi	r2,2
   116c0:	003fef06 	br	11680 <___vfprintf_internal_r+0x6c>
   116c4:	31800960 	cmpeqi	r6,r6,37
   116c8:	3001051e 	bne	r6,zero,11ae0 <___vfprintf_internal_r+0x4cc>
   116cc:	b8800117 	ldw	r2,4(r23)
   116d0:	da000315 	stw	r8,12(sp)
   116d4:	d9000805 	stb	r4,32(sp)
   116d8:	01c00044 	movi	r7,1
   116dc:	d9800804 	addi	r6,sp,32
   116e0:	b80b883a 	mov	r5,r23
   116e4:	8009883a 	mov	r4,r16
   116e8:	103ee83a 	callr	r2
   116ec:	da000317 	ldw	r8,12(sp)
   116f0:	10001d26 	beq	r2,zero,11768 <___vfprintf_internal_r+0x154>
   116f4:	05bfffc4 	movi	r22,-1
   116f8:	b005883a 	mov	r2,r22
   116fc:	dfc01917 	ldw	ra,100(sp)
   11700:	df001817 	ldw	fp,96(sp)
   11704:	ddc01717 	ldw	r23,92(sp)
   11708:	dd801617 	ldw	r22,88(sp)
   1170c:	dd401517 	ldw	r21,84(sp)
   11710:	dd001417 	ldw	r20,80(sp)
   11714:	dcc01317 	ldw	r19,76(sp)
   11718:	dc801217 	ldw	r18,72(sp)
   1171c:	dc401117 	ldw	r17,68(sp)
   11720:	dc001017 	ldw	r16,64(sp)
   11724:	dec01a04 	addi	sp,sp,104
   11728:	f800283a 	ret
   1172c:	30800c20 	cmpeqi	r2,r6,48
   11730:	1000f41e 	bne	r2,zero,11b04 <___vfprintf_internal_r+0x4f0>
   11734:	30800958 	cmpnei	r2,r6,37
   11738:	103fe426 	beq	r2,zero,116cc <___vfprintf_internal_r+0xb8>
   1173c:	217ff404 	addi	r5,r4,-48
   11740:	29403fcc 	andi	r5,r5,255
   11744:	288002a8 	cmpgeui	r2,r5,10
   11748:	10000b1e 	bne	r2,zero,11778 <___vfprintf_internal_r+0x164>
   1174c:	88bfffe0 	cmpeqi	r2,r17,-1
   11750:	1000071e 	bne	r2,zero,11770 <___vfprintf_internal_r+0x15c>
   11754:	880490ba 	slli	r2,r17,2
   11758:	1463883a 	add	r17,r2,r17
   1175c:	8822907a 	slli	r17,r17,1
   11760:	2c63883a 	add	r17,r5,r17
   11764:	003fd506 	br	116bc <___vfprintf_internal_r+0xa8>
   11768:	b5800044 	addi	r22,r22,1
   1176c:	003fc406 	br	11680 <___vfprintf_internal_r+0x6c>
   11770:	0023883a 	mov	r17,zero
   11774:	003ffa06 	br	11760 <___vfprintf_internal_r+0x14c>
   11778:	30800ba0 	cmpeqi	r2,r6,46
   1177c:	1000e61e 	bne	r2,zero,11b18 <___vfprintf_internal_r+0x504>
   11780:	00800084 	movi	r2,2
   11784:	213ff404 	addi	r4,r4,-48
   11788:	21003fcc 	andi	r4,r4,255
   1178c:	214002a8 	cmpgeui	r5,r4,10
   11790:	2800091e 	bne	r5,zero,117b8 <___vfprintf_internal_r+0x1a4>
   11794:	917fffe0 	cmpeqi	r5,r18,-1
   11798:	2800051e 	bne	r5,zero,117b0 <___vfprintf_internal_r+0x19c>
   1179c:	900a90ba 	slli	r5,r18,2
   117a0:	2ca5883a 	add	r18,r5,r18
   117a4:	9024907a 	slli	r18,r18,1
   117a8:	24a5883a 	add	r18,r4,r18
   117ac:	003fb406 	br	11680 <___vfprintf_internal_r+0x6c>
   117b0:	0025883a 	mov	r18,zero
   117b4:	003ffc06 	br	117a8 <___vfprintf_internal_r+0x194>
   117b8:	30801b20 	cmpeqi	r2,r6,108
   117bc:	1000d41e 	bne	r2,zero,11b10 <___vfprintf_internal_r+0x4fc>
   117c0:	90bfffe0 	cmpeqi	r2,r18,-1
   117c4:	10000f1e 	bne	r2,zero,11804 <___vfprintf_internal_r+0x1f0>
   117c8:	d8000015 	stw	zero,0(sp)
   117cc:	30801be0 	cmpeqi	r2,r6,111
   117d0:	1000d31e 	bne	r2,zero,11b20 <___vfprintf_internal_r+0x50c>
   117d4:	30801c08 	cmpgei	r2,r6,112
   117d8:	1000171e 	bne	r2,zero,11838 <___vfprintf_internal_r+0x224>
   117dc:	308018e0 	cmpeqi	r2,r6,99
   117e0:	1000a61e 	bne	r2,zero,11a7c <___vfprintf_internal_r+0x468>
   117e4:	30801908 	cmpgei	r2,r6,100
   117e8:	1000081e 	bne	r2,zero,1180c <___vfprintf_internal_r+0x1f8>
   117ec:	31801620 	cmpeqi	r6,r6,88
   117f0:	303f9f26 	beq	r6,zero,11670 <___vfprintf_internal_r+0x5c>
   117f4:	00800044 	movi	r2,1
   117f8:	d8800215 	stw	r2,8(sp)
   117fc:	05000404 	movi	r20,16
   11800:	0000c806 	br	11b24 <___vfprintf_internal_r+0x510>
   11804:	04800044 	movi	r18,1
   11808:	003ff006 	br	117cc <___vfprintf_internal_r+0x1b8>
   1180c:	30801920 	cmpeqi	r2,r6,100
   11810:	1000021e 	bne	r2,zero,1181c <___vfprintf_internal_r+0x208>
   11814:	31801a60 	cmpeqi	r6,r6,105
   11818:	303f9526 	beq	r6,zero,11670 <___vfprintf_internal_r+0x5c>
   1181c:	40800104 	addi	r2,r8,4
   11820:	d8800415 	stw	r2,16(sp)
   11824:	9800bf26 	beq	r19,zero,11b24 <___vfprintf_internal_r+0x510>
   11828:	45400017 	ldw	r21,0(r8)
   1182c:	a8002216 	blt	r21,zero,118b8 <___vfprintf_internal_r+0x2a4>
   11830:	04c00044 	movi	r19,1
   11834:	0000bf06 	br	11b34 <___vfprintf_internal_r+0x520>
   11838:	30801d60 	cmpeqi	r2,r6,117
   1183c:	1000b91e 	bne	r2,zero,11b24 <___vfprintf_internal_r+0x510>
   11840:	30801e20 	cmpeqi	r2,r6,120
   11844:	103fed1e 	bne	r2,zero,117fc <___vfprintf_internal_r+0x1e8>
   11848:	31801ce0 	cmpeqi	r6,r6,115
   1184c:	303f8826 	beq	r6,zero,11670 <___vfprintf_internal_r+0x5c>
   11850:	45400017 	ldw	r21,0(r8)
   11854:	40800104 	addi	r2,r8,4
   11858:	d8800315 	stw	r2,12(sp)
   1185c:	a809883a 	mov	r4,r21
   11860:	0011bfc0 	call	11bfc <strlen>
   11864:	888fc83a 	sub	r7,r17,r2
   11868:	1039883a 	mov	fp,r2
   1186c:	01c0080e 	bge	zero,r7,11890 <___vfprintf_internal_r+0x27c>
   11870:	01800804 	movi	r6,32
   11874:	b80b883a 	mov	r5,r23
   11878:	8009883a 	mov	r4,r16
   1187c:	d9c00415 	stw	r7,16(sp)
   11880:	00115a80 	call	115a8 <print_repeat>
   11884:	103f9b1e 	bne	r2,zero,116f4 <___vfprintf_internal_r+0xe0>
   11888:	d9c00417 	ldw	r7,16(sp)
   1188c:	b1ed883a 	add	r22,r22,r7
   11890:	b8800117 	ldw	r2,4(r23)
   11894:	e00f883a 	mov	r7,fp
   11898:	a80d883a 	mov	r6,r21
   1189c:	b80b883a 	mov	r5,r23
   118a0:	8009883a 	mov	r4,r16
   118a4:	103ee83a 	callr	r2
   118a8:	103f921e 	bne	r2,zero,116f4 <___vfprintf_internal_r+0xe0>
   118ac:	da000317 	ldw	r8,12(sp)
   118b0:	b72d883a 	add	r22,r22,fp
   118b4:	003f7206 	br	11680 <___vfprintf_internal_r+0x6c>
   118b8:	056bc83a 	sub	r21,zero,r21
   118bc:	04c00044 	movi	r19,1
   118c0:	02800044 	movi	r10,1
   118c4:	df000804 	addi	fp,sp,32
   118c8:	e00d883a 	mov	r6,fp
   118cc:	a8002f1e 	bne	r21,zero,1198c <___vfprintf_internal_r+0x378>
   118d0:	e185c83a 	sub	r2,fp,r6
   118d4:	d8800315 	stw	r2,12(sp)
   118d8:	9085c83a 	sub	r2,r18,r2
   118dc:	0080090e 	bge	zero,r2,11904 <___vfprintf_internal_r+0x2f0>
   118e0:	e085883a 	add	r2,fp,r2
   118e4:	d8c01004 	addi	r3,sp,64
   118e8:	e0c0042e 	bgeu	fp,r3,118fc <___vfprintf_internal_r+0x2e8>
   118ec:	e7000044 	addi	fp,fp,1
   118f0:	00c00c04 	movi	r3,48
   118f4:	e0ffffc5 	stb	r3,-1(fp)
   118f8:	e0bffa1e 	bne	fp,r2,118e4 <___vfprintf_internal_r+0x2d0>
   118fc:	e185c83a 	sub	r2,fp,r6
   11900:	d8800315 	stw	r2,12(sp)
   11904:	d8800317 	ldw	r2,12(sp)
   11908:	5097883a 	add	r11,r10,r2
   1190c:	d8800017 	ldw	r2,0(sp)
   11910:	8aebc83a 	sub	r21,r17,r11
   11914:	10003626 	beq	r2,zero,119f0 <___vfprintf_internal_r+0x3dc>
   11918:	50000a26 	beq	r10,zero,11944 <___vfprintf_internal_r+0x330>
   1191c:	00800b44 	movi	r2,45
   11920:	d88007c5 	stb	r2,31(sp)
   11924:	b8800117 	ldw	r2,4(r23)
   11928:	01c00044 	movi	r7,1
   1192c:	d98007c4 	addi	r6,sp,31
   11930:	b80b883a 	mov	r5,r23
   11934:	8009883a 	mov	r4,r16
   11938:	103ee83a 	callr	r2
   1193c:	103f6d1e 	bne	r2,zero,116f4 <___vfprintf_internal_r+0xe0>
   11940:	b5800044 	addi	r22,r22,1
   11944:	0540070e 	bge	zero,r21,11964 <___vfprintf_internal_r+0x350>
   11948:	a80f883a 	mov	r7,r21
   1194c:	01800c04 	movi	r6,48
   11950:	b80b883a 	mov	r5,r23
   11954:	8009883a 	mov	r4,r16
   11958:	00115a80 	call	115a8 <print_repeat>
   1195c:	103f651e 	bne	r2,zero,116f4 <___vfprintf_internal_r+0xe0>
   11960:	b56d883a 	add	r22,r22,r21
   11964:	d8800317 	ldw	r2,12(sp)
   11968:	e011883a 	mov	r8,fp
   1196c:	b72d883a 	add	r22,r22,fp
   11970:	172bc83a 	sub	r21,r2,fp
   11974:	aa05883a 	add	r2,r21,r8
   11978:	b207c83a 	sub	r3,r22,r8
   1197c:	00803216 	blt	zero,r2,11a48 <___vfprintf_internal_r+0x434>
   11980:	da000417 	ldw	r8,16(sp)
   11984:	182d883a 	mov	r22,r3
   11988:	003f3906 	br	11670 <___vfprintf_internal_r+0x5c>
   1198c:	a809883a 	mov	r4,r21
   11990:	a00b883a 	mov	r5,r20
   11994:	da800615 	stw	r10,24(sp)
   11998:	00111d40 	call	111d4 <__udivsi3>
   1199c:	1009883a 	mov	r4,r2
   119a0:	a00b883a 	mov	r5,r20
   119a4:	d8800315 	stw	r2,12(sp)
   119a8:	00112940 	call	11294 <__mulsi3>
   119ac:	a8abc83a 	sub	r21,r21,r2
   119b0:	a8800288 	cmpgei	r2,r21,10
   119b4:	d9000317 	ldw	r4,12(sp)
   119b8:	da800617 	ldw	r10,24(sp)
   119bc:	d9800804 	addi	r6,sp,32
   119c0:	1000051e 	bne	r2,zero,119d8 <___vfprintf_internal_r+0x3c4>
   119c4:	ad400c04 	addi	r21,r21,48
   119c8:	e7000044 	addi	fp,fp,1
   119cc:	e57fffc5 	stb	r21,-1(fp)
   119d0:	202b883a 	mov	r21,r4
   119d4:	003fbd06 	br	118cc <___vfprintf_internal_r+0x2b8>
   119d8:	d8800217 	ldw	r2,8(sp)
   119dc:	10000226 	beq	r2,zero,119e8 <___vfprintf_internal_r+0x3d4>
   119e0:	ad400dc4 	addi	r21,r21,55
   119e4:	003ff806 	br	119c8 <___vfprintf_internal_r+0x3b4>
   119e8:	ad4015c4 	addi	r21,r21,87
   119ec:	003ff606 	br	119c8 <___vfprintf_internal_r+0x3b4>
   119f0:	0540090e 	bge	zero,r21,11a18 <___vfprintf_internal_r+0x404>
   119f4:	a80f883a 	mov	r7,r21
   119f8:	01800804 	movi	r6,32
   119fc:	b80b883a 	mov	r5,r23
   11a00:	8009883a 	mov	r4,r16
   11a04:	da800615 	stw	r10,24(sp)
   11a08:	00115a80 	call	115a8 <print_repeat>
   11a0c:	103f391e 	bne	r2,zero,116f4 <___vfprintf_internal_r+0xe0>
   11a10:	da800617 	ldw	r10,24(sp)
   11a14:	b56d883a 	add	r22,r22,r21
   11a18:	503fd226 	beq	r10,zero,11964 <___vfprintf_internal_r+0x350>
   11a1c:	00800b44 	movi	r2,45
   11a20:	d88007c5 	stb	r2,31(sp)
   11a24:	b8800117 	ldw	r2,4(r23)
   11a28:	01c00044 	movi	r7,1
   11a2c:	d98007c4 	addi	r6,sp,31
   11a30:	b80b883a 	mov	r5,r23
   11a34:	8009883a 	mov	r4,r16
   11a38:	103ee83a 	callr	r2
   11a3c:	103f2d1e 	bne	r2,zero,116f4 <___vfprintf_internal_r+0xe0>
   11a40:	b5800044 	addi	r22,r22,1
   11a44:	003fc706 	br	11964 <___vfprintf_internal_r+0x350>
   11a48:	40bfffc3 	ldbu	r2,-1(r8)
   11a4c:	01c00044 	movi	r7,1
   11a50:	423fffc4 	addi	r8,r8,-1
   11a54:	d88007c5 	stb	r2,31(sp)
   11a58:	b8800117 	ldw	r2,4(r23)
   11a5c:	d98007c4 	addi	r6,sp,31
   11a60:	b80b883a 	mov	r5,r23
   11a64:	8009883a 	mov	r4,r16
   11a68:	da000315 	stw	r8,12(sp)
   11a6c:	103ee83a 	callr	r2
   11a70:	da000317 	ldw	r8,12(sp)
   11a74:	103fbf26 	beq	r2,zero,11974 <___vfprintf_internal_r+0x360>
   11a78:	003f1e06 	br	116f4 <___vfprintf_internal_r+0xe0>
   11a7c:	88800090 	cmplti	r2,r17,2
   11a80:	10000a1e 	bne	r2,zero,11aac <___vfprintf_internal_r+0x498>
   11a84:	8d7fffc4 	addi	r21,r17,-1
   11a88:	a80f883a 	mov	r7,r21
   11a8c:	01800804 	movi	r6,32
   11a90:	b80b883a 	mov	r5,r23
   11a94:	8009883a 	mov	r4,r16
   11a98:	da000315 	stw	r8,12(sp)
   11a9c:	00115a80 	call	115a8 <print_repeat>
   11aa0:	da000317 	ldw	r8,12(sp)
   11aa4:	103f131e 	bne	r2,zero,116f4 <___vfprintf_internal_r+0xe0>
   11aa8:	b56d883a 	add	r22,r22,r21
   11aac:	40800017 	ldw	r2,0(r8)
   11ab0:	01c00044 	movi	r7,1
   11ab4:	d9800804 	addi	r6,sp,32
   11ab8:	d8800805 	stb	r2,32(sp)
   11abc:	b8800117 	ldw	r2,4(r23)
   11ac0:	b80b883a 	mov	r5,r23
   11ac4:	8009883a 	mov	r4,r16
   11ac8:	45400104 	addi	r21,r8,4
   11acc:	103ee83a 	callr	r2
   11ad0:	103f081e 	bne	r2,zero,116f4 <___vfprintf_internal_r+0xe0>
   11ad4:	b5800044 	addi	r22,r22,1
   11ad8:	a811883a 	mov	r8,r21
   11adc:	003ee806 	br	11680 <___vfprintf_internal_r+0x6c>
   11ae0:	d8000215 	stw	zero,8(sp)
   11ae4:	d8000115 	stw	zero,4(sp)
   11ae8:	d8000015 	stw	zero,0(sp)
   11aec:	04c00044 	movi	r19,1
   11af0:	05000284 	movi	r20,10
   11af4:	04bfffc4 	movi	r18,-1
   11af8:	047fffc4 	movi	r17,-1
   11afc:	00800044 	movi	r2,1
   11b00:	003edf06 	br	11680 <___vfprintf_internal_r+0x6c>
   11b04:	00800044 	movi	r2,1
   11b08:	d8800015 	stw	r2,0(sp)
   11b0c:	003eeb06 	br	116bc <___vfprintf_internal_r+0xa8>
   11b10:	00800044 	movi	r2,1
   11b14:	d8800115 	stw	r2,4(sp)
   11b18:	008000c4 	movi	r2,3
   11b1c:	003ed806 	br	11680 <___vfprintf_internal_r+0x6c>
   11b20:	05000204 	movi	r20,8
   11b24:	40800104 	addi	r2,r8,4
   11b28:	d8800415 	stw	r2,16(sp)
   11b2c:	45400017 	ldw	r21,0(r8)
   11b30:	0027883a 	mov	r19,zero
   11b34:	0015883a 	mov	r10,zero
   11b38:	003f6206 	br	118c4 <___vfprintf_internal_r+0x2b0>

00011b3c <__vfprintf_internal>:
   11b3c:	00800074 	movhi	r2,1
   11b40:	300f883a 	mov	r7,r6
   11b44:	280d883a 	mov	r6,r5
   11b48:	200b883a 	mov	r5,r4
   11b4c:	11097f17 	ldw	r4,9724(r2)
   11b50:	00116141 	jmpi	11614 <___vfprintf_internal_r>

00011b54 <__sfvwrite_small_dev>:
   11b54:	2880000b 	ldhu	r2,0(r5)
   11b58:	1080020c 	andi	r2,r2,8
   11b5c:	10002526 	beq	r2,zero,11bf4 <__sfvwrite_small_dev+0xa0>
   11b60:	2880008f 	ldh	r2,2(r5)
   11b64:	defffb04 	addi	sp,sp,-20
   11b68:	dcc00315 	stw	r19,12(sp)
   11b6c:	dc800215 	stw	r18,8(sp)
   11b70:	dc400115 	stw	r17,4(sp)
   11b74:	dc000015 	stw	r16,0(sp)
   11b78:	dfc00415 	stw	ra,16(sp)
   11b7c:	2027883a 	mov	r19,r4
   11b80:	2821883a 	mov	r16,r5
   11b84:	3025883a 	mov	r18,r6
   11b88:	3823883a 	mov	r17,r7
   11b8c:	1000100e 	bge	r2,zero,11bd0 <__sfvwrite_small_dev+0x7c>
   11b90:	8080000b 	ldhu	r2,0(r16)
   11b94:	10801014 	ori	r2,r2,64
   11b98:	8080000d 	sth	r2,0(r16)
   11b9c:	00bfffc4 	movi	r2,-1
   11ba0:	00000d06 	br	11bd8 <__sfvwrite_small_dev+0x84>
   11ba4:	88810050 	cmplti	r2,r17,1025
   11ba8:	880f883a 	mov	r7,r17
   11bac:	1000011e 	bne	r2,zero,11bb4 <__sfvwrite_small_dev+0x60>
   11bb0:	01c10004 	movi	r7,1024
   11bb4:	8140008f 	ldh	r5,2(r16)
   11bb8:	900d883a 	mov	r6,r18
   11bbc:	9809883a 	mov	r4,r19
   11bc0:	0011c180 	call	11c18 <_write_r>
   11bc4:	00bff20e 	bge	zero,r2,11b90 <__sfvwrite_small_dev+0x3c>
   11bc8:	88a3c83a 	sub	r17,r17,r2
   11bcc:	90a5883a 	add	r18,r18,r2
   11bd0:	047ff416 	blt	zero,r17,11ba4 <__sfvwrite_small_dev+0x50>
   11bd4:	0005883a 	mov	r2,zero
   11bd8:	dfc00417 	ldw	ra,16(sp)
   11bdc:	dcc00317 	ldw	r19,12(sp)
   11be0:	dc800217 	ldw	r18,8(sp)
   11be4:	dc400117 	ldw	r17,4(sp)
   11be8:	dc000017 	ldw	r16,0(sp)
   11bec:	dec00504 	addi	sp,sp,20
   11bf0:	f800283a 	ret
   11bf4:	00bfffc4 	movi	r2,-1
   11bf8:	f800283a 	ret

00011bfc <strlen>:
   11bfc:	2005883a 	mov	r2,r4
   11c00:	10c00007 	ldb	r3,0(r2)
   11c04:	1800021e 	bne	r3,zero,11c10 <strlen+0x14>
   11c08:	1105c83a 	sub	r2,r2,r4
   11c0c:	f800283a 	ret
   11c10:	10800044 	addi	r2,r2,1
   11c14:	003ffa06 	br	11c00 <strlen+0x4>

00011c18 <_write_r>:
   11c18:	defffe04 	addi	sp,sp,-8
   11c1c:	dc000015 	stw	r16,0(sp)
   11c20:	00800074 	movhi	r2,1
   11c24:	2021883a 	mov	r16,r4
   11c28:	2809883a 	mov	r4,r5
   11c2c:	300b883a 	mov	r5,r6
   11c30:	380d883a 	mov	r6,r7
   11c34:	dfc00115 	stw	ra,4(sp)
   11c38:	1009f415 	stw	zero,10192(r2)
   11c3c:	0011ea40 	call	11ea4 <write>
   11c40:	10ffffd8 	cmpnei	r3,r2,-1
   11c44:	1800041e 	bne	r3,zero,11c58 <_write_r+0x40>
   11c48:	00c00074 	movhi	r3,1
   11c4c:	18c9f417 	ldw	r3,10192(r3)
   11c50:	18000126 	beq	r3,zero,11c58 <_write_r+0x40>
   11c54:	80c00015 	stw	r3,0(r16)
   11c58:	dfc00117 	ldw	ra,4(sp)
   11c5c:	dc000017 	ldw	r16,0(sp)
   11c60:	dec00204 	addi	sp,sp,8
   11c64:	f800283a 	ret

00011c68 <alt_getchar>:
#else
#ifdef ALT_USE_DIRECT_DRIVERS
    ALT_DRIVER_READ_EXTERNS(ALT_STDIN_DEV);
    char c;

    if (ALT_DRIVER_READ(ALT_STDIN_DEV, &c, 1, alt_fd_list[STDIN_FILENO].fd_flags) <= 0) {
   11c68:	00800074 	movhi	r2,1
   11c6c:	11c96a17 	ldw	r7,9640(r2)
{
   11c70:	defffe04 	addi	sp,sp,-8
    if (ALT_DRIVER_READ(ALT_STDIN_DEV, &c, 1, alt_fd_list[STDIN_FILENO].fd_flags) <= 0) {
   11c74:	01000074 	movhi	r4,1
   11c78:	01800044 	movi	r6,1
   11c7c:	d94000c4 	addi	r5,sp,3
   11c80:	21098204 	addi	r4,r4,9736
{
   11c84:	dfc00115 	stw	ra,4(sp)
    if (ALT_DRIVER_READ(ALT_STDIN_DEV, &c, 1, alt_fd_list[STDIN_FILENO].fd_flags) <= 0) {
   11c88:	0011f300 	call	11f30 <altera_avalon_jtag_uart_read>
   11c8c:	0080040e 	bge	zero,r2,11ca0 <alt_getchar+0x38>
        return -1;
    }
    return c;
   11c90:	d88000c7 	ldb	r2,3(sp)
#else
    return getchar();
#endif
#endif
}
   11c94:	dfc00117 	ldw	ra,4(sp)
   11c98:	dec00204 	addi	sp,sp,8
   11c9c:	f800283a 	ret
        return -1;
   11ca0:	00bfffc4 	movi	r2,-1
   11ca4:	003ffb06 	br	11c94 <alt_getchar+0x2c>

00011ca8 <alt_irq_register>:
                      alt_isr_func handler)
{
  int rc = -EINVAL;  
  alt_irq_context status;

  if (id < ALT_NIRQ)
   11ca8:	20800828 	cmpgeui	r2,r4,32
   11cac:	1000201e 	bne	r2,zero,11d30 <alt_irq_register+0x88>
  NIOS2_READ_STATUS (context);
   11cb0:	000f303a 	rdctl	r7,status
  NIOS2_WRITE_STATUS (context & ~NIOS2_STATUS_PIE_MSK);
   11cb4:	00ffff84 	movi	r3,-2
   11cb8:	38c4703a 	and	r2,r7,r3
   11cbc:	1001703a 	wrctl	status,r2
     * state.
     */

    status = alt_irq_disable_all ();

    alt_irq[id].handler = handler;
   11cc0:	201090fa 	slli	r8,r4,3
   11cc4:	00800074 	movhi	r2,1
   11cc8:	1089fa04 	addi	r2,r2,10216
   11ccc:	1205883a 	add	r2,r2,r8
   11cd0:	11800015 	stw	r6,0(r2)
    alt_irq[id].context = context;
   11cd4:	11400115 	stw	r5,4(r2)

    rc = (handler) ? alt_irq_enable (id): alt_irq_disable (id);
   11cd8:	00800044 	movi	r2,1
   11cdc:	1108983a 	sll	r4,r2,r4
   11ce0:	30000c26 	beq	r6,zero,11d14 <alt_irq_register+0x6c>
  NIOS2_READ_STATUS (context);
   11ce4:	0005303a 	rdctl	r2,status
  NIOS2_WRITE_STATUS (context & ~NIOS2_STATUS_PIE_MSK);
   11ce8:	10c6703a 	and	r3,r2,r3
   11cec:	1801703a 	wrctl	status,r3
  alt_irq_context  status;
  extern volatile alt_u32 alt_irq_active;

  status = alt_irq_disable_all ();

  alt_irq_active |= (1 << id);
   11cf0:	d0e07717 	ldw	r3,-32292(gp)
   11cf4:	20c8b03a 	or	r4,r4,r3
  alt_irq_active &= ~(1 << id);
   11cf8:	d1207715 	stw	r4,-32292(gp)
  NIOS2_WRITE_IENABLE (alt_irq_active);
   11cfc:	d0e07717 	ldw	r3,-32292(gp)
   11d00:	180170fa 	wrctl	ienable,r3
  NIOS2_WRITE_STATUS (context);
   11d04:	1001703a 	wrctl	status,r2
   11d08:	3801703a 	wrctl	status,r7
   11d0c:	0005883a 	mov	r2,zero
}
   11d10:	f800283a 	ret
  NIOS2_READ_STATUS (context);
   11d14:	0005303a 	rdctl	r2,status
  NIOS2_WRITE_STATUS (context & ~NIOS2_STATUS_PIE_MSK);
   11d18:	10c6703a 	and	r3,r2,r3
   11d1c:	1801703a 	wrctl	status,r3
  alt_irq_active &= ~(1 << id);
   11d20:	d0e07717 	ldw	r3,-32292(gp)
   11d24:	0108303a 	nor	r4,zero,r4
   11d28:	20c8703a 	and	r4,r4,r3
   11d2c:	003ff206 	br	11cf8 <alt_irq_register+0x50>
  int rc = -EINVAL;  
   11d30:	00bffa84 	movi	r2,-22

    alt_irq_enable_all(status);
  }
  return rc; 
}
   11d34:	f800283a 	ret

00011d38 <alt_load>:
 * there is no bootloader, so this application is responsible for loading to
 * RAM any sections that are required.
 */  

void alt_load (void)
{
   11d38:	deffff04 	addi	sp,sp,-4

static void ALT_INLINE alt_load_section (alt_u32* from, 
                                         alt_u32* to, 
                                         alt_u32* end)
{
  if (to != from)
   11d3c:	00800074 	movhi	r2,1
   11d40:	00c00074 	movhi	r3,1
   11d44:	dfc00015 	stw	ra,0(sp)
   11d48:	10892404 	addi	r2,r2,9360
   11d4c:	18c98904 	addi	r3,r3,9764
   11d50:	10c00326 	beq	r2,r3,11d60 <alt_load+0x28>
  {
    while( to != end )
   11d54:	01000074 	movhi	r4,1
   11d58:	21098904 	addi	r4,r4,9764
   11d5c:	1100141e 	bne	r2,r4,11db0 <alt_load+0x78>
  if (to != from)
   11d60:	00800074 	movhi	r2,1
   11d64:	00c00074 	movhi	r3,1
   11d68:	10800804 	addi	r2,r2,32
   11d6c:	18c00804 	addi	r3,r3,32
   11d70:	10c00326 	beq	r2,r3,11d80 <alt_load+0x48>
    while( to != end )
   11d74:	01000074 	movhi	r4,1
   11d78:	21006004 	addi	r4,r4,384
   11d7c:	1100111e 	bne	r2,r4,11dc4 <alt_load+0x8c>
  if (to != from)
   11d80:	00800074 	movhi	r2,1
   11d84:	00c00074 	movhi	r3,1
   11d88:	1088ae04 	addi	r2,r2,8888
   11d8c:	18c8ae04 	addi	r3,r3,8888
   11d90:	10c00326 	beq	r2,r3,11da0 <alt_load+0x68>
    while( to != end )
   11d94:	01000074 	movhi	r4,1
   11d98:	21092404 	addi	r4,r4,9360
   11d9c:	11000e1e 	bne	r2,r4,11dd8 <alt_load+0xa0>
  
  /*
   * Now ensure that the caches are in synch.
   */
  
  alt_dcache_flush_all();
   11da0:	00121240 	call	12124 <alt_dcache_flush_all>
  alt_icache_flush_all();
}
   11da4:	dfc00017 	ldw	ra,0(sp)
   11da8:	dec00104 	addi	sp,sp,4
  alt_icache_flush_all();
   11dac:	001220c1 	jmpi	1220c <alt_icache_flush_all>
    {
      *to++ = *from++;
   11db0:	19400017 	ldw	r5,0(r3)
   11db4:	10800104 	addi	r2,r2,4
   11db8:	18c00104 	addi	r3,r3,4
   11dbc:	117fff15 	stw	r5,-4(r2)
   11dc0:	003fe606 	br	11d5c <alt_load+0x24>
   11dc4:	19400017 	ldw	r5,0(r3)
   11dc8:	10800104 	addi	r2,r2,4
   11dcc:	18c00104 	addi	r3,r3,4
   11dd0:	117fff15 	stw	r5,-4(r2)
   11dd4:	003fe906 	br	11d7c <alt_load+0x44>
   11dd8:	19400017 	ldw	r5,0(r3)
   11ddc:	10800104 	addi	r2,r2,4
   11de0:	18c00104 	addi	r3,r3,4
   11de4:	117fff15 	stw	r5,-4(r2)
   11de8:	003fec06 	br	11d9c <alt_load+0x64>

00011dec <alt_main>:
 * devices/filesystems/components in the system; and call the entry point for
 * the users application, i.e. main().
 */

void alt_main (void)
{
   11dec:	deffff04 	addi	sp,sp,-4
#endif

  /* ALT LOG - please see HAL/sys/alt_log_printf.h for details */
  ALT_LOG_PRINT_BOOT("[alt_main.c] Entering alt_main, calling alt_irq_init.\r\n");
  /* Initialize the interrupt controller. */
  alt_irq_init (NULL);
   11df0:	0009883a 	mov	r4,zero
{
   11df4:	dfc00015 	stw	ra,0(sp)
  alt_irq_init (NULL);
   11df8:	0011f000 	call	11f00 <alt_irq_init>
  ALT_LOG_PRINT_BOOT("[alt_main.c] Done OS Init, calling alt_sem_create.\r\n");
  ALT_SEM_CREATE (&alt_fd_list_lock, 1);

  /* Initialize the device drivers/software components. */
  ALT_LOG_PRINT_BOOT("[alt_main.c] Calling alt_sys_init.\r\n");
  alt_sys_init();
   11dfc:	0011f200 	call	11f20 <alt_sys_init>
   */

  ALT_LOG_PRINT_BOOT("[alt_main.c] Calling main.\r\n");

#ifdef ALT_NO_EXIT
  main (alt_argc, alt_argv, alt_envp);
   11e00:	d1a07817 	ldw	r6,-32288(gp)
   11e04:	d1607917 	ldw	r5,-32284(gp)
   11e08:	d1207a17 	ldw	r4,-32280(gp)
  close(STDOUT_FILENO);
  exit (result);
#endif

  ALT_LOG_PRINT_BOOT("[alt_main.c] After main - we should not be here?.\r\n");
}
   11e0c:	dfc00017 	ldw	ra,0(sp)
   11e10:	dec00104 	addi	sp,sp,4
  main (alt_argc, alt_argv, alt_envp);
   11e14:	00105641 	jmpi	10564 <main>

00011e18 <__malloc_lock>:
 * this requires that malloc is never called by an interrupt service routine.
 */

void __malloc_lock ( struct _reent *_r )
{
}
   11e18:	f800283a 	ret

00011e1c <__malloc_unlock>:
   11e1c:	f800283a 	ret

00011e20 <alt_putstr>:
 * Uses the ALT_DRIVER_WRITE() macro to call directly to driver if available.
 * Otherwise, uses newlib provided fputs() routine.
 */
int 
alt_putstr(const char* str)
{
   11e20:	defffe04 	addi	sp,sp,-8
   11e24:	dc000015 	stw	r16,0(sp)
   11e28:	dfc00115 	stw	ra,4(sp)
   11e2c:	2021883a 	mov	r16,r4
#ifdef ALT_SEMIHOSTING
    return write(STDOUT_FILENO,str,strlen(str));
#else
#ifdef ALT_USE_DIRECT_DRIVERS
    ALT_DRIVER_WRITE_EXTERNS(ALT_STDOUT_DEV);
    return ALT_DRIVER_WRITE(ALT_STDOUT_DEV, str, strlen(str), 0);
   11e30:	0011bfc0 	call	11bfc <strlen>
   11e34:	01000074 	movhi	r4,1
   11e38:	000f883a 	mov	r7,zero
   11e3c:	100d883a 	mov	r6,r2
   11e40:	800b883a 	mov	r5,r16
   11e44:	21098204 	addi	r4,r4,9736
#else
    return fputs(str, stdout);
#endif
#endif
}
   11e48:	dfc00117 	ldw	ra,4(sp)
   11e4c:	dc000017 	ldw	r16,0(sp)
   11e50:	dec00204 	addi	sp,sp,8
    return ALT_DRIVER_WRITE(ALT_STDOUT_DEV, str, strlen(str), 0);
   11e54:	0011f881 	jmpi	11f88 <altera_avalon_jtag_uart_write>

00011e58 <sbrk>:
  NIOS2_READ_STATUS (context);
   11e58:	0007303a 	rdctl	r3,status
  NIOS2_WRITE_STATUS (context & ~NIOS2_STATUS_PIE_MSK);
   11e5c:	00bfff84 	movi	r2,-2
   11e60:	1884703a 	and	r2,r3,r2
   11e64:	1001703a 	wrctl	status,r2
  char *prev_heap_end; 

  context = alt_irq_disable_all();

  /* Always return data aligned on a word boundary */
  heap_end = (char *)(((unsigned int)heap_end + 3) & ~3);
   11e68:	d0a00317 	ldw	r2,-32756(gp)
   11e6c:	017fff04 	movi	r5,-4
   11e70:	108000c4 	addi	r2,r2,3
   11e74:	1144703a 	and	r2,r2,r5
  if (((heap_end + incr) - __alt_heap_start) > ALT_MAX_HEAP_BYTES) {
    alt_irq_enable_all(context);
    return (caddr_t)-1;
  }
#else
  if ((heap_end + incr) > __alt_heap_limit) {
   11e78:	014000b4 	movhi	r5,2
  heap_end = (char *)(((unsigned int)heap_end + 3) & ~3);
   11e7c:	d0a00315 	stw	r2,-32756(gp)
  if ((heap_end + incr) > __alt_heap_limit) {
   11e80:	1109883a 	add	r4,r2,r4
   11e84:	29400004 	addi	r5,r5,0
   11e88:	2900032e 	bgeu	r5,r4,11e98 <sbrk+0x40>
  NIOS2_WRITE_STATUS (context);
   11e8c:	1801703a 	wrctl	status,r3
    alt_irq_enable_all(context);
    return (caddr_t)-1;
   11e90:	00bfffc4 	movi	r2,-1
   11e94:	f800283a 	ret
  }
#endif

  prev_heap_end = heap_end; 
  heap_end += incr; 
   11e98:	d1200315 	stw	r4,-32756(gp)
   11e9c:	1801703a 	wrctl	status,r3
#endif

  alt_irq_enable_all(context);

  return (caddr_t) prev_heap_end; 
} 
   11ea0:	f800283a 	ret

00011ea4 <write>:
#if !defined(ALT_STDOUT_PRESENT) && !defined(ALT_STDERR_PRESENT)
    /* Generate a link time warning, should this function ever be called. */
    ALT_STUB_WARNING(write);
#endif

    switch (file) {
   11ea4:	213fffc4 	addi	r4,r4,-1
   11ea8:	210000a8 	cmpgeui	r4,r4,2
   11eac:	2000041e 	bne	r4,zero,11ec0 <write+0x1c>
#ifdef ALT_STDOUT_PRESENT
    case 1: /* stdout file descriptor */
        return ALT_DRIVER_WRITE(ALT_STDOUT_DEV, ptr, len, 0);
   11eb0:	01000074 	movhi	r4,1
   11eb4:	000f883a 	mov	r7,zero
   11eb8:	21098204 	addi	r4,r4,9736
   11ebc:	0011f881 	jmpi	11f88 <altera_avalon_jtag_uart_write>

extern int errno;

static ALT_INLINE int* alt_get_errno(void)
{
  return ((alt_errno) ? alt_errno() : &errno);
   11ec0:	d0a00a17 	ldw	r2,-32728(gp)
   11ec4:	10000926 	beq	r2,zero,11eec <write+0x48>
{
   11ec8:	deffff04 	addi	sp,sp,-4
   11ecc:	dfc00015 	stw	ra,0(sp)
   11ed0:	103ee83a 	callr	r2
#ifdef ALT_STDERR_PRESENT
    case 2: /* stderr file descriptor */
        return ALT_DRIVER_WRITE(ALT_STDERR_DEV, ptr, len, 0);
#endif /* ALT_STDERR_PRESENT */
    default:
        ALT_ERRNO = EBADFD;
   11ed4:	00c01444 	movi	r3,81
   11ed8:	10c00015 	stw	r3,0(r2)
        return -1;
    }
}
   11edc:	00bfffc4 	movi	r2,-1
   11ee0:	dfc00017 	ldw	ra,0(sp)
   11ee4:	dec00104 	addi	sp,sp,4
   11ee8:	f800283a 	ret
   11eec:	d0a07604 	addi	r2,gp,-32296
        ALT_ERRNO = EBADFD;
   11ef0:	00c01444 	movi	r3,81
   11ef4:	10c00015 	stw	r3,0(r2)
}
   11ef8:	00bfffc4 	movi	r2,-1
   11efc:	f800283a 	ret

00011f00 <alt_irq_init>:
 * The "base" parameter is ignored and only
 * present for backwards-compatibility.
 */

void alt_irq_init ( const void* base )
{
   11f00:	deffff04 	addi	sp,sp,-4
   11f04:	dfc00015 	stw	ra,0(sp)
    ALTERA_NIOS2_GEN2_IRQ_INIT ( CPU, cpu);
   11f08:	00122100 	call	12210 <altera_nios2_gen2_irq_init>
    NIOS2_WRITE_STATUS(NIOS2_STATUS_PIE_MSK
   11f0c:	00800044 	movi	r2,1
   11f10:	1001703a 	wrctl	status,r2
    alt_irq_cpu_enable_interrupts();
}
   11f14:	dfc00017 	ldw	ra,0(sp)
   11f18:	dec00104 	addi	sp,sp,4
   11f1c:	f800283a 	ret

00011f20 <alt_sys_init>:

static ALT_INLINE int alt_dev_reg (alt_dev* dev)
{
  extern alt_llist alt_dev_list;

  return alt_dev_llist_insert ((alt_dev_llist*) dev, &alt_dev_list);
   11f20:	01000074 	movhi	r4,1
   11f24:	d1600604 	addi	r5,gp,-32744
   11f28:	21095d04 	addi	r4,r4,9588
   11f2c:	00121301 	jmpi	12130 <alt_dev_llist_insert>

00011f30 <altera_avalon_jtag_uart_read>:

int 
altera_avalon_jtag_uart_read(altera_avalon_jtag_uart_state* sp, 
  char* buffer, int space, int flags)
{
  unsigned int base = sp->base;
   11f30:	21000017 	ldw	r4,0(r4)

  char * ptr = buffer;
  char * end = buffer + space;
   11f34:	298d883a 	add	r6,r5,r6

  while (ptr < end)
   11f38:	2805883a 	mov	r2,r5

    if (data & ALTERA_AVALON_JTAG_UART_DATA_RVALID_MSK)
      *ptr++ = (data & ALTERA_AVALON_JTAG_UART_DATA_DATA_MSK) >> ALTERA_AVALON_JTAG_UART_DATA_DATA_OFST;
    else if (ptr != buffer)
      break;
    else if(flags & O_NONBLOCK)
   11f3c:	3a10000c 	andi	r8,r7,16384
  while (ptr < end)
   11f40:	11800536 	bltu	r2,r6,11f58 <altera_avalon_jtag_uart_read+0x28>
      break;   
    
  }

  if (ptr != buffer)
   11f44:	11400b1e 	bne	r2,r5,11f74 <altera_avalon_jtag_uart_read+0x44>
    return ptr - buffer;
  else if (flags & O_NONBLOCK)
   11f48:	39d0000c 	andi	r7,r7,16384
   11f4c:	38000c1e 	bne	r7,zero,11f80 <altera_avalon_jtag_uart_read+0x50>
    return -EWOULDBLOCK;
  else
    return -EIO;
   11f50:	00bffec4 	movi	r2,-5
}
   11f54:	f800283a 	ret
    unsigned int data = IORD_ALTERA_AVALON_JTAG_UART_DATA(base);
   11f58:	20c00037 	ldwio	r3,0(r4)
    if (data & ALTERA_AVALON_JTAG_UART_DATA_RVALID_MSK)
   11f5c:	1a60000c 	andi	r9,r3,32768
   11f60:	48000326 	beq	r9,zero,11f70 <altera_avalon_jtag_uart_read+0x40>
      *ptr++ = (data & ALTERA_AVALON_JTAG_UART_DATA_DATA_MSK) >> ALTERA_AVALON_JTAG_UART_DATA_DATA_OFST;
   11f64:	10c00005 	stb	r3,0(r2)
   11f68:	10800044 	addi	r2,r2,1
   11f6c:	003ff406 	br	11f40 <altera_avalon_jtag_uart_read+0x10>
    else if (ptr != buffer)
   11f70:	11400226 	beq	r2,r5,11f7c <altera_avalon_jtag_uart_read+0x4c>
    return ptr - buffer;
   11f74:	1145c83a 	sub	r2,r2,r5
   11f78:	f800283a 	ret
    else if(flags & O_NONBLOCK)
   11f7c:	403ff026 	beq	r8,zero,11f40 <altera_avalon_jtag_uart_read+0x10>
    return -EWOULDBLOCK;
   11f80:	00bffd44 	movi	r2,-11
   11f84:	f800283a 	ret

00011f88 <altera_avalon_jtag_uart_write>:
 */

int altera_avalon_jtag_uart_write(altera_avalon_jtag_uart_state* sp, 
  const char * ptr, int count, int flags)
{
  unsigned int base = sp->base;
   11f88:	21000017 	ldw	r4,0(r4)
{
   11f8c:	3005883a 	mov	r2,r6

  const char * end = ptr + count;
   11f90:	298d883a 	add	r6,r5,r6

  while (ptr < end)
   11f94:	29800136 	bltu	r5,r6,11f9c <altera_avalon_jtag_uart_write+0x14>
    if ((IORD_ALTERA_AVALON_JTAG_UART_CONTROL(base) & ALTERA_AVALON_JTAG_UART_CONTROL_WSPACE_MSK) != 0)
      IOWR_ALTERA_AVALON_JTAG_UART_DATA(base, *ptr++);

  return count;
}
   11f98:	f800283a 	ret
    if ((IORD_ALTERA_AVALON_JTAG_UART_CONTROL(base) & ALTERA_AVALON_JTAG_UART_CONTROL_WSPACE_MSK) != 0)
   11f9c:	20c00137 	ldwio	r3,4(r4)
   11fa0:	18ffffec 	andhi	r3,r3,65535
   11fa4:	183ffb26 	beq	r3,zero,11f94 <altera_avalon_jtag_uart_write+0xc>
      IOWR_ALTERA_AVALON_JTAG_UART_DATA(base, *ptr++);
   11fa8:	28c00007 	ldb	r3,0(r5)
   11fac:	29400044 	addi	r5,r5,1
   11fb0:	20c00035 	stwio	r3,0(r4)
   11fb4:	003ff706 	br	11f94 <altera_avalon_jtag_uart_write+0xc>

00011fb8 <alt_up_accelerometer_spi_open_dev>:
{
  // find the device from the device list 
  // (see altera_hal/HAL/inc/priv/alt_file.h 
  // and altera_hal/HAL/src/alt_find_dev.c 
  // for details)
  alt_up_accelerometer_spi_dev *dev = (alt_up_accelerometer_spi_dev*)alt_find_dev(name, &alt_dev_list);
   11fb8:	d1600604 	addi	r5,gp,-32744
   11fbc:	001219c1 	jmpi	1219c <alt_find_dev>

00011fc0 <alt_up_accelerometer_spi_read_address_register>:
 * @return 0 for success 
 **/
int alt_up_accelerometer_spi_read_address_register(alt_up_accelerometer_spi_dev *accel_spi, alt_u8 *addr)
{
	// reads data from the device Address register
	*(addr) = IORD_ALT_UP_ACCELEROMETER_SPI_ADDRESS(accel_spi->base); 
   11fc0:	20800a17 	ldw	r2,40(r4)
   11fc4:	10800023 	ldbuio	r2,0(r2)
   11fc8:	28800005 	stb	r2,0(r5)

	return 0;
}
   11fcc:	0005883a 	mov	r2,zero
   11fd0:	f800283a 	ret

00011fd4 <alt_up_accelerometer_spi_read>:
 * @return 0 for success
 **/
int alt_up_accelerometer_spi_read(alt_up_accelerometer_spi_dev *accel_spi, alt_u8 addr, alt_u8 *data)
{
	// set the register address in the Address register
	IOWR_ALT_UP_ACCELEROMETER_SPI_ADDRESS(accel_spi->base, addr & ALT_UP_ACCELEROMETER_SPI_ADDRESS_ADDR_MSK); 
   11fd4:	20800a17 	ldw	r2,40(r4)
   11fd8:	29400fcc 	andi	r5,r5,63
   11fdc:	11400025 	stbio	r5,0(r2)

	// read data to the device Data register
	*(data) = IORD_ALT_UP_ACCELEROMETER_SPI_DATA(accel_spi->base) & ALT_UP_ACCELEROMETER_SPI_DATA_DATA_MSK;
   11fe0:	20800a17 	ldw	r2,40(r4)
   11fe4:	10800063 	ldbuio	r2,1(r2)
   11fe8:	30800005 	stb	r2,0(r6)

	return 0;
}
   11fec:	0005883a 	mov	r2,zero
   11ff0:	f800283a 	ret

00011ff4 <alt_up_accelerometer_spi_write>:
 * @return 0 for success
 **/
int alt_up_accelerometer_spi_write(alt_up_accelerometer_spi_dev *accel_spi, alt_u8 addr, alt_u8 data)
{
	// set the register address in the Address register
	IOWR_ALT_UP_ACCELEROMETER_SPI_ADDRESS(accel_spi->base, addr & ALT_UP_ACCELEROMETER_SPI_ADDRESS_ADDR_MSK); 
   11ff4:	20800a17 	ldw	r2,40(r4)
   11ff8:	29400fcc 	andi	r5,r5,63
   11ffc:	11400025 	stbio	r5,0(r2)

	// write data to the device Data register
	IOWR_ALT_UP_ACCELEROMETER_SPI_DATA(accel_spi->base, data & ALT_UP_ACCELEROMETER_SPI_DATA_DATA_MSK); 
   12000:	20800a17 	ldw	r2,40(r4)
   12004:	11800065 	stbio	r6,1(r2)

	return 0;
}
   12008:	0005883a 	mov	r2,zero
   1200c:	f800283a 	ret

00012010 <alt_up_accelerometer_spi_read_x_axis>:
 * @return 0 for success or -1 for failure
 **/
int alt_up_accelerometer_spi_read_x_axis(alt_up_accelerometer_spi_dev *accel_spi, alt_32 *x_axis)
{
	// set the register address in the Address register
	IOWR_ALT_UP_ACCELEROMETER_SPI_ADDRESS(accel_spi->base, ACCELEROMETER_SPI_X_AXIS_LOWER_BYTE & ALT_UP_ACCELEROMETER_SPI_ADDRESS_ADDR_MSK); 
   12010:	20800a17 	ldw	r2,40(r4)
   12014:	00c00c84 	movi	r3,50
   12018:	10c00025 	stbio	r3,0(r2)

	// read data to the device Data register
	*(x_axis) = IORD_ALT_UP_ACCELEROMETER_SPI_DATA(accel_spi->base) & ALT_UP_ACCELEROMETER_SPI_DATA_DATA_MSK;
   1201c:	20800a17 	ldw	r2,40(r4)
   12020:	10800063 	ldbuio	r2,1(r2)

	// set the register address in the Address register
	IOWR_ALT_UP_ACCELEROMETER_SPI_ADDRESS(accel_spi->base, ACCELEROMETER_SPI_X_AXIS_UPPER_BYTE & ALT_UP_ACCELEROMETER_SPI_ADDRESS_ADDR_MSK); 
   12024:	00c00cc4 	movi	r3,51
	*(x_axis) = IORD_ALT_UP_ACCELEROMETER_SPI_DATA(accel_spi->base) & ALT_UP_ACCELEROMETER_SPI_DATA_DATA_MSK;
   12028:	10803fcc 	andi	r2,r2,255
   1202c:	28800015 	stw	r2,0(r5)
	IOWR_ALT_UP_ACCELEROMETER_SPI_ADDRESS(accel_spi->base, ACCELEROMETER_SPI_X_AXIS_UPPER_BYTE & ALT_UP_ACCELEROMETER_SPI_ADDRESS_ADDR_MSK); 
   12030:	20800a17 	ldw	r2,40(r4)
   12034:	10c00025 	stbio	r3,0(r2)

	// read data to the device Data register
	*(x_axis) += (IORD_ALT_UP_ACCELEROMETER_SPI_DATA(accel_spi->base) & ALT_UP_ACCELEROMETER_SPI_DATA_DATA_MSK) << 8;
   12038:	20800a17 	ldw	r2,40(r4)
   1203c:	10800063 	ldbuio	r2,1(r2)
   12040:	10803fcc 	andi	r2,r2,255
   12044:	28c00017 	ldw	r3,0(r5)
   12048:	1004923a 	slli	r2,r2,8
   1204c:	10c5883a 	add	r2,r2,r3

	if (*(x_axis) & 0x00008000)
   12050:	10e0000c 	andi	r3,r2,32768
   12054:	1800031e 	bne	r3,zero,12064 <alt_up_accelerometer_spi_read_x_axis+0x54>
	{
		*(x_axis) |= 0xFFFF0000;
   12058:	28800015 	stw	r2,0(r5)
	}

	return 0;
}
   1205c:	0005883a 	mov	r2,zero
   12060:	f800283a 	ret
		*(x_axis) |= 0xFFFF0000;
   12064:	10bffff4 	orhi	r2,r2,65535
   12068:	003ffb06 	br	12058 <alt_up_accelerometer_spi_read_x_axis+0x48>

0001206c <alt_up_accelerometer_spi_read_y_axis>:
 * @return 0 for success or -1 for failure
 **/
int alt_up_accelerometer_spi_read_y_axis(alt_up_accelerometer_spi_dev *accel_spi, alt_32 *y_axis)
{
	// set the register address in the Address register
	IOWR_ALT_UP_ACCELEROMETER_SPI_ADDRESS(accel_spi->base, ACCELEROMETER_SPI_Y_AXIS_LOWER_BYTE & ALT_UP_ACCELEROMETER_SPI_ADDRESS_ADDR_MSK); 
   1206c:	20800a17 	ldw	r2,40(r4)
   12070:	00c00d04 	movi	r3,52
   12074:	10c00025 	stbio	r3,0(r2)

	// read data to the device Data register
	*(y_axis) = IORD_ALT_UP_ACCELEROMETER_SPI_DATA(accel_spi->base) & ALT_UP_ACCELEROMETER_SPI_DATA_DATA_MSK;
   12078:	20800a17 	ldw	r2,40(r4)
   1207c:	10800063 	ldbuio	r2,1(r2)

	// set the register address in the Address register
	IOWR_ALT_UP_ACCELEROMETER_SPI_ADDRESS(accel_spi->base, ACCELEROMETER_SPI_Y_AXIS_UPPER_BYTE & ALT_UP_ACCELEROMETER_SPI_ADDRESS_ADDR_MSK); 
   12080:	00c00d44 	movi	r3,53
	*(y_axis) = IORD_ALT_UP_ACCELEROMETER_SPI_DATA(accel_spi->base) & ALT_UP_ACCELEROMETER_SPI_DATA_DATA_MSK;
   12084:	10803fcc 	andi	r2,r2,255
   12088:	28800015 	stw	r2,0(r5)
	IOWR_ALT_UP_ACCELEROMETER_SPI_ADDRESS(accel_spi->base, ACCELEROMETER_SPI_Y_AXIS_UPPER_BYTE & ALT_UP_ACCELEROMETER_SPI_ADDRESS_ADDR_MSK); 
   1208c:	20800a17 	ldw	r2,40(r4)
   12090:	10c00025 	stbio	r3,0(r2)

	// read data to the device Data register
	*(y_axis) += (IORD_ALT_UP_ACCELEROMETER_SPI_DATA(accel_spi->base) & ALT_UP_ACCELEROMETER_SPI_DATA_DATA_MSK) << 8;
   12094:	20800a17 	ldw	r2,40(r4)
   12098:	10800063 	ldbuio	r2,1(r2)
   1209c:	10803fcc 	andi	r2,r2,255
   120a0:	28c00017 	ldw	r3,0(r5)
   120a4:	1004923a 	slli	r2,r2,8
   120a8:	10c5883a 	add	r2,r2,r3

	if (*(y_axis) & 0x00008000)
   120ac:	10e0000c 	andi	r3,r2,32768
   120b0:	1800031e 	bne	r3,zero,120c0 <alt_up_accelerometer_spi_read_y_axis+0x54>
	{
		*(y_axis) |= 0xFFFF0000;
   120b4:	28800015 	stw	r2,0(r5)
	}

	return 0;
}
   120b8:	0005883a 	mov	r2,zero
   120bc:	f800283a 	ret
		*(y_axis) |= 0xFFFF0000;
   120c0:	10bffff4 	orhi	r2,r2,65535
   120c4:	003ffb06 	br	120b4 <alt_up_accelerometer_spi_read_y_axis+0x48>

000120c8 <alt_up_accelerometer_spi_read_z_axis>:
 * @return 0 for success or -1 for failure
 **/
int alt_up_accelerometer_spi_read_z_axis(alt_up_accelerometer_spi_dev *accel_spi, alt_32 *z_axis)
{
	// set the register address in the Address register
	IOWR_ALT_UP_ACCELEROMETER_SPI_ADDRESS(accel_spi->base, ACCELEROMETER_SPI_Z_AXIS_LOWER_BYTE & ALT_UP_ACCELEROMETER_SPI_ADDRESS_ADDR_MSK); 
   120c8:	20800a17 	ldw	r2,40(r4)
   120cc:	00c00d84 	movi	r3,54
   120d0:	10c00025 	stbio	r3,0(r2)

	// read data to the device Data register
	*(z_axis) = IORD_ALT_UP_ACCELEROMETER_SPI_DATA(accel_spi->base) & ALT_UP_ACCELEROMETER_SPI_DATA_DATA_MSK;
   120d4:	20800a17 	ldw	r2,40(r4)
   120d8:	10800063 	ldbuio	r2,1(r2)

	// set the register address in the Address register
	IOWR_ALT_UP_ACCELEROMETER_SPI_ADDRESS(accel_spi->base, ACCELEROMETER_SPI_Z_AXIS_UPPER_BYTE & ALT_UP_ACCELEROMETER_SPI_ADDRESS_ADDR_MSK); 
   120dc:	00c00dc4 	movi	r3,55
	*(z_axis) = IORD_ALT_UP_ACCELEROMETER_SPI_DATA(accel_spi->base) & ALT_UP_ACCELEROMETER_SPI_DATA_DATA_MSK;
   120e0:	10803fcc 	andi	r2,r2,255
   120e4:	28800015 	stw	r2,0(r5)
	IOWR_ALT_UP_ACCELEROMETER_SPI_ADDRESS(accel_spi->base, ACCELEROMETER_SPI_Z_AXIS_UPPER_BYTE & ALT_UP_ACCELEROMETER_SPI_ADDRESS_ADDR_MSK); 
   120e8:	20800a17 	ldw	r2,40(r4)
   120ec:	10c00025 	stbio	r3,0(r2)

	// read data to the device Data register
	*(z_axis) += (IORD_ALT_UP_ACCELEROMETER_SPI_DATA(accel_spi->base) & ALT_UP_ACCELEROMETER_SPI_DATA_DATA_MSK) << 8;
   120f0:	20800a17 	ldw	r2,40(r4)
   120f4:	10800063 	ldbuio	r2,1(r2)
   120f8:	10803fcc 	andi	r2,r2,255
   120fc:	28c00017 	ldw	r3,0(r5)
   12100:	1004923a 	slli	r2,r2,8
   12104:	10c5883a 	add	r2,r2,r3

	if (*(z_axis) & 0x00008000)
   12108:	10e0000c 	andi	r3,r2,32768
   1210c:	1800031e 	bne	r3,zero,1211c <alt_up_accelerometer_spi_read_z_axis+0x54>
	{
		*(z_axis) |= 0xFFFF0000;
   12110:	28800015 	stw	r2,0(r5)
	}

	return 0;
}
   12114:	0005883a 	mov	r2,zero
   12118:	f800283a 	ret
		*(z_axis) |= 0xFFFF0000;
   1211c:	10bffff4 	orhi	r2,r2,65535
   12120:	003ffb06 	br	12110 <alt_up_accelerometer_spi_read_z_axis+0x48>

00012124 <alt_dcache_flush_all>:
  for (i = (char*) 0; i < (char*) NIOS2_DCACHE_SIZE; i+= NIOS2_DCACHE_LINE_SIZE)
  { 
    __asm__ volatile ("flushd (%0)" :: "r" (i));
  }
#endif /* NIOS2_DCACHE_SIZE > 0 */
}
   12124:	f800283a 	ret

00012128 <alt_dev_null_write>:
 * by the alt_dev_null device. It simple discards all data passed to it, and
 * indicates that the data has been successfully transmitted.
 */

static int alt_dev_null_write (alt_fd* fd, const char* ptr, int len)
{
   12128:	3005883a 	mov	r2,r6
  return len;
}
   1212c:	f800283a 	ret

00012130 <alt_dev_llist_insert>:
{
  /*
   * check that the device exists, and that it has a valid name.
   */

  if (!dev || !dev->name)
   12130:	20000226 	beq	r4,zero,1213c <alt_dev_llist_insert+0xc>
   12134:	20800217 	ldw	r2,8(r4)
   12138:	10000b1e 	bne	r2,zero,12168 <alt_dev_llist_insert+0x38>
   1213c:	d0a00a17 	ldw	r2,-32728(gp)
   12140:	10001126 	beq	r2,zero,12188 <alt_dev_llist_insert+0x58>
{
   12144:	deffff04 	addi	sp,sp,-4
   12148:	dfc00015 	stw	ra,0(sp)
   1214c:	103ee83a 	callr	r2
  {
    ALT_ERRNO = EINVAL;
   12150:	00c00584 	movi	r3,22
   12154:	10c00015 	stw	r3,0(r2)
    return -EINVAL;
   12158:	00bffa84 	movi	r2,-22
   */
  
  alt_llist_insert(list, &dev->llist);

  return 0;  
}
   1215c:	dfc00017 	ldw	ra,0(sp)
   12160:	dec00104 	addi	sp,sp,4
   12164:	f800283a 	ret

static ALT_INLINE void ALT_ALWAYS_INLINE alt_llist_insert(alt_llist* list, 
                alt_llist* entry)
{
  entry->previous = list;
  entry->next     = list->next;
   12168:	28800017 	ldw	r2,0(r5)
  entry->previous = list;
   1216c:	21400115 	stw	r5,4(r4)
  entry->next     = list->next;
   12170:	20800015 	stw	r2,0(r4)

  list->next->previous = entry;
   12174:	28800017 	ldw	r2,0(r5)
   12178:	11000115 	stw	r4,4(r2)
  list->next           = entry;
   1217c:	29000015 	stw	r4,0(r5)
  return 0;  
   12180:	0005883a 	mov	r2,zero
   12184:	f800283a 	ret
   12188:	d0a07604 	addi	r2,gp,-32296
    ALT_ERRNO = EINVAL;
   1218c:	00c00584 	movi	r3,22
   12190:	10c00015 	stw	r3,0(r2)
    return -EINVAL;
   12194:	00bffa84 	movi	r2,-22
}
   12198:	f800283a 	ret

0001219c <alt_find_dev>:
 * "name" must be an exact match for the devices registered name for a match to
 * be found.
 */
 
alt_dev* alt_find_dev(const char* name, alt_llist* llist)
{
   1219c:	defffb04 	addi	sp,sp,-20
   121a0:	dcc00315 	stw	r19,12(sp)
   121a4:	dc800215 	stw	r18,8(sp)
   121a8:	dc400115 	stw	r17,4(sp)
   121ac:	dc000015 	stw	r16,0(sp)
   121b0:	dfc00415 	stw	ra,16(sp)
  alt_dev* next = (alt_dev*) llist->next;
   121b4:	2c000017 	ldw	r16,0(r5)
{
   121b8:	2027883a 	mov	r19,r4
   121bc:	2823883a 	mov	r17,r5
  alt_32 len;

  len  = strlen(name) + 1;
   121c0:	0011bfc0 	call	11bfc <strlen>
   121c4:	14800044 	addi	r18,r2,1
  /*
   * Check each list entry in turn, until a match is found, or we reach the
   * end of the list (i.e. next winds up pointing back to the list head).
   */ 

  while (next != (alt_dev*) llist)
   121c8:	8440091e 	bne	r16,r17,121f0 <alt_find_dev+0x54>
    next = (alt_dev*) next->llist.next;
  }
  
  /* No match found */
  
  return NULL;
   121cc:	0021883a 	mov	r16,zero
}
   121d0:	8005883a 	mov	r2,r16
   121d4:	dfc00417 	ldw	ra,16(sp)
   121d8:	dcc00317 	ldw	r19,12(sp)
   121dc:	dc800217 	ldw	r18,8(sp)
   121e0:	dc400117 	ldw	r17,4(sp)
   121e4:	dc000017 	ldw	r16,0(sp)
   121e8:	dec00504 	addi	sp,sp,20
   121ec:	f800283a 	ret
    if (!memcmp (next->name, name, len))
   121f0:	81000217 	ldw	r4,8(r16)
   121f4:	900d883a 	mov	r6,r18
   121f8:	980b883a 	mov	r5,r19
   121fc:	00122880 	call	12288 <memcmp>
   12200:	103ff326 	beq	r2,zero,121d0 <alt_find_dev+0x34>
    next = (alt_dev*) next->llist.next;
   12204:	84000017 	ldw	r16,0(r16)
   12208:	003fef06 	br	121c8 <alt_find_dev+0x2c>

0001220c <alt_icache_flush_all>:
void alt_icache_flush_all (void)
{
#if NIOS2_ICACHE_SIZE > 0
  alt_icache_flush (0, NIOS2_ICACHE_SIZE);
#endif
}
   1220c:	f800283a 	ret

00012210 <altera_nios2_gen2_irq_init>:
 * To initialize the internal interrupt controller, just clear the IENABLE
 * register so that all possible IRQs are disabled.
 */
void altera_nios2_gen2_irq_init(void) 
{
    NIOS2_WRITE_IENABLE(0);
   12210:	000170fa 	wrctl	ienable,zero
}
   12214:	f800283a 	ret

00012218 <alt_exception_cause_generated_bad_addr>:
 *         0: BADADDR is not valid
 */
int 
alt_exception_cause_generated_bad_addr(alt_exception_cause cause)
{
  switch (cause) {
   12218:	213ffe84 	addi	r4,r4,-6
   1221c:	20800428 	cmpgeui	r2,r4,16
   12220:	1000151e 	bne	r2,zero,12278 <alt_exception_cause_generated_bad_addr+0x60>
   12224:	200890ba 	slli	r4,r4,2
   12228:	00800074 	movhi	r2,1
   1222c:	2085883a 	add	r2,r4,r2
   12230:	10888e17 	ldw	r2,8760(r2)
   12234:	1000683a 	jmp	r2
   12238:	00012280 	call	1228 <__alt_mem_onchip_memory-0xedd8>
   1223c:	00012280 	call	1228 <__alt_mem_onchip_memory-0xedd8>
   12240:	00012278 	rdprs	zero,zero,1161
   12244:	00012278 	rdprs	zero,zero,1161
   12248:	00012278 	rdprs	zero,zero,1161
   1224c:	00012280 	call	1228 <__alt_mem_onchip_memory-0xedd8>
   12250:	00012278 	rdprs	zero,zero,1161
   12254:	00012278 	rdprs	zero,zero,1161
   12258:	00012280 	call	1228 <__alt_mem_onchip_memory-0xedd8>
   1225c:	00012280 	call	1228 <__alt_mem_onchip_memory-0xedd8>
   12260:	00012278 	rdprs	zero,zero,1161
   12264:	00012280 	call	1228 <__alt_mem_onchip_memory-0xedd8>
   12268:	00012278 	rdprs	zero,zero,1161
   1226c:	00012278 	rdprs	zero,zero,1161
   12270:	00012278 	rdprs	zero,zero,1161
   12274:	00012280 	call	1228 <__alt_mem_onchip_memory-0xedd8>
  case NIOS2_EXCEPTION_MISALIGNED_TARGET_PC:
  case NIOS2_EXCEPTION_TLB_READ_PERM_VIOLATION:
  case NIOS2_EXCEPTION_TLB_WRITE_PERM_VIOLATION:
  case NIOS2_EXCEPTION_MPU_DATA_REGION_VIOLATION:
  case NIOS2_EXCEPTION_ECC_DATA_ERR:
    return 1;
   12278:	0005883a 	mov	r2,zero
   1227c:	f800283a 	ret
   12280:	00800044 	movi	r2,1
    return 0;

  default:
    return 0;
  }
}
   12284:	f800283a 	ret

00012288 <memcmp>:
   12288:	0007883a 	mov	r3,zero
   1228c:	30c0021e 	bne	r6,r3,12298 <memcmp+0x10>
   12290:	0005883a 	mov	r2,zero
   12294:	f800283a 	ret
   12298:	20c5883a 	add	r2,r4,r3
   1229c:	18c00044 	addi	r3,r3,1
   122a0:	28cf883a 	add	r7,r5,r3
   122a4:	10800003 	ldbu	r2,0(r2)
   122a8:	39ffffc3 	ldbu	r7,-1(r7)
   122ac:	11fff726 	beq	r2,r7,1228c <memcmp+0x4>
   122b0:	11c5c83a 	sub	r2,r2,r7
   122b4:	f800283a 	ret
